	.file	"axpb.cc"
	.text
	.section	.rodata.str1.8,"aMS",@progbits,1
	.align 8
.LC0:
	.string	"long int axpb_simd_m_nmn(axpb_options_t, float, float*, float)"
	.section	.rodata.str1.1,"aMS",@progbits,1
.LC1:
	.string	"axpb.cc"
.LC2:
	.string	"m % L == 0"
.LC3:
	.string	"n % steps_inner == 0"
.LC4:
	.string	"opt.bs == 1"
	.text
	.p2align 4
	.globl	_Z15axpb_simd_m_nmn14axpb_options_tfPff
	.type	_Z15axpb_simd_m_nmn14axpb_options_tfPff, @function
_Z15axpb_simd_m_nmn14axpb_options_tfPff:
.LFB5656:
	.cfi_startproc
	endbr64
	pushq	%rbp
	.cfi_def_cfa_offset 16
	.cfi_offset 6, -16
	movq	%rdi, %r8
	movq	%rsp, %rbp
	.cfi_def_cfa_register 6
	movq	56(%rbp), %rax
	movq	64(%rbp), %rdi
	andq	$-64, %rsp
	testb	$15, %al
	jne	.L14
	testb	$3, %dil
	jne	.L15
	cmpq	$1, 32(%rbp)
	jne	.L16
#APP
# 222 "axpb.cc" 1
	# axpb_simd_m_nmn: ax+b loop begin
# 0 "" 2
#NO_APP
	testq	%rdi, %rdi
	jle	.L8
	testq	%rax, %rax
	leaq	15(%rax), %rcx
	cmovns	%rax, %rcx
	sarq	$4, %rcx
	cmpq	$15, %rax
	jle	.L8
	xorl	%esi, %esi
	vbroadcastss	%xmm0, %zmm2
	vbroadcastss	%xmm1, %zmm1
	.p2align 4,,10
	.p2align 3
.L9:
	movq	%r8, %rax
	xorl	%edx, %edx
	.p2align 4,,10
	.p2align 3
.L7:
	vmovaps	%zmm2, %zmm0
	vfmadd132ps	(%rax), %zmm1, %zmm0
	incq	%rdx
	addq	$64, %rax
	vfmadd132ps	%zmm2, %zmm1, %zmm0
	vfmadd132ps	%zmm2, %zmm1, %zmm0
	vfmadd132ps	%zmm2, %zmm1, %zmm0
	vmovups	%zmm0, -64(%rax)
	cmpq	%rcx, %rdx
	jl	.L7
	addq	$4, %rsi
	cmpq	%rsi, %rdi
	jg	.L9
	vzeroupper
.L8:
#APP
# 230 "axpb.cc" 1
	# axpb_simd_m_nmn: ax+b loop end
# 0 "" 2
#NO_APP
	xorl	%eax, %eax
	leave
	.cfi_remember_state
	.cfi_def_cfa 7, 8
	ret
.L14:
	.cfi_restore_state
	leaq	.LC0(%rip), %rcx
	movl	$218, %edx
	leaq	.LC1(%rip), %rsi
	leaq	.LC2(%rip), %rdi
	call	__assert_fail@PLT
.L16:
	leaq	.LC0(%rip), %rcx
	movl	$220, %edx
	leaq	.LC1(%rip), %rsi
	leaq	.LC4(%rip), %rdi
	call	__assert_fail@PLT
.L15:
	leaq	.LC0(%rip), %rcx
	movl	$219, %edx
	leaq	.LC1(%rip), %rsi
	leaq	.LC3(%rip), %rdi
	call	__assert_fail@PLT
	.cfi_endproc
.LFE5656:
	.size	_Z15axpb_simd_m_nmn14axpb_options_tfPff, .-_Z15axpb_simd_m_nmn14axpb_options_tfPff
	.section	.rodata._Z24axpb_simd_parallel_m_mnmILi1EEl14axpb_options_tfPff.str1.8,"aMS",@progbits,1
	.align 8
.LC5:
	.string	"long int axpb_simd_parallel_m_mnm(axpb_options_t, float, float*, float) [with int c = 1]"
	.section	.rodata._Z24axpb_simd_parallel_m_mnmILi1EEl14axpb_options_tfPff.str1.1,"aMS",@progbits,1
.LC6:
	.string	"c % L == 0"
	.section	.text._Z24axpb_simd_parallel_m_mnmILi1EEl14axpb_options_tfPff,"axG",@progbits,_Z24axpb_simd_parallel_m_mnmILi1EEl14axpb_options_tfPff,comdat
	.p2align 4
	.weak	_Z24axpb_simd_parallel_m_mnmILi1EEl14axpb_options_tfPff
	.type	_Z24axpb_simd_parallel_m_mnmILi1EEl14axpb_options_tfPff, @function
_Z24axpb_simd_parallel_m_mnmILi1EEl14axpb_options_tfPff:
.LFB5718:
	.cfi_startproc
	endbr64
	pushq	%rax
	.cfi_def_cfa_offset 16
	popq	%rax
	.cfi_def_cfa_offset 8
	leaq	.LC5(%rip), %rcx
	movl	$287, %edx
	leaq	.LC1(%rip), %rsi
	leaq	.LC6(%rip), %rdi
	subq	$8, %rsp
	.cfi_def_cfa_offset 16
	call	__assert_fail@PLT
	.cfi_endproc
.LFE5718:
	.size	_Z24axpb_simd_parallel_m_mnmILi1EEl14axpb_options_tfPff, .-_Z24axpb_simd_parallel_m_mnmILi1EEl14axpb_options_tfPff
	.section	.rodata._Z15axpb_simd_m_mnmILi1EEl14axpb_options_tfPff.str1.8,"aMS",@progbits,1
	.align 8
.LC7:
	.string	"long int axpb_simd_m_mnm(axpb_options_t, float, float*, float) [with int c = 1]"
	.section	.rodata._Z15axpb_simd_m_mnmILi1EEl14axpb_options_tfPff.str1.1,"aMS",@progbits,1
.LC8:
	.string	"m % (c * L) == 0"
	.section	.text._Z15axpb_simd_m_mnmILi1EEl14axpb_options_tfPff,"axG",@progbits,_Z15axpb_simd_m_mnmILi1EEl14axpb_options_tfPff,comdat
	.p2align 4
	.weak	_Z15axpb_simd_m_mnmILi1EEl14axpb_options_tfPff
	.type	_Z15axpb_simd_m_mnmILi1EEl14axpb_options_tfPff, @function
_Z15axpb_simd_m_mnmILi1EEl14axpb_options_tfPff:
.LFB5717:
	.cfi_startproc
	endbr64
	pushq	%rbp
	.cfi_def_cfa_offset 16
	.cfi_offset 6, -16
	movq	%rsp, %rbp
	.cfi_def_cfa_register 6
	movq	56(%rbp), %rdx
	movq	64(%rbp), %rcx
	andq	$-64, %rsp
	testb	$15, %dl
	jne	.L31
	cmpq	$1, 32(%rbp)
	jne	.L32
	testq	%rdx, %rdx
	leaq	15(%rdx), %rsi
	cmovns	%rdx, %rsi
	vbroadcastss	%xmm0, %zmm2
	sarq	$4, %rsi
	xorl	%eax, %eax
	vbroadcastss	%xmm1, %zmm1
	cmpq	$15, %rdx
	jg	.L22
	jmp	.L28
	.p2align 4,,10
	.p2align 3
.L23:
#APP
# 261 "axpb.cc" 1
	# axpb_simd_m_mnm<$1>: ax+c inner loop end
# 0 "" 2
#NO_APP
	incq	%rax
	cmpq	%rsi, %rax
	jge	.L28
.L22:
#APP
# 255 "axpb.cc" 1
	# axpb_simd_m_mnm<$1>: ax+c inner loop begin
# 0 "" 2
#NO_APP
	testq	%rcx, %rcx
	jle	.L23
	movq	%rax, %r8
	salq	$6, %r8
	vmovups	(%rdi,%r8), %zmm0
	xorl	%edx, %edx
.L24:
	incq	%rdx
	vfmadd132ps	%zmm2, %zmm1, %zmm0
	cmpq	%rdx, %rcx
	jne	.L24
	vmovups	%zmm0, (%rdi,%r8)
	jmp	.L23
	.p2align 4,,10
	.p2align 3
.L28:
	xorl	%eax, %eax
	vzeroupper
	leave
	.cfi_remember_state
	.cfi_def_cfa 7, 8
	ret
.L31:
	.cfi_restore_state
	leaq	.LC7(%rip), %rcx
	movl	$251, %edx
	leaq	.LC1(%rip), %rsi
	leaq	.LC8(%rip), %rdi
	call	__assert_fail@PLT
.L32:
	leaq	.LC7(%rip), %rcx
	movl	$252, %edx
	leaq	.LC1(%rip), %rsi
	leaq	.LC4(%rip), %rdi
	call	__assert_fail@PLT
	.cfi_endproc
.LFE5717:
	.size	_Z15axpb_simd_m_mnmILi1EEl14axpb_options_tfPff, .-_Z15axpb_simd_m_mnmILi1EEl14axpb_options_tfPff
	.section	.rodata._Z11axpb_simd_cILi1EEl14axpb_options_tfPff.str1.8,"aMS",@progbits,1
	.align 8
.LC9:
	.string	"long int axpb_simd_c(axpb_options_t, float, float*, float) [with int c = 1]"
	.section	.rodata._Z11axpb_simd_cILi1EEl14axpb_options_tfPff.str1.1,"aMS",@progbits,1
.LC10:
	.string	"opt.m == c * L"
	.section	.text._Z11axpb_simd_cILi1EEl14axpb_options_tfPff,"axG",@progbits,_Z11axpb_simd_cILi1EEl14axpb_options_tfPff,comdat
	.p2align 4
	.weak	_Z11axpb_simd_cILi1EEl14axpb_options_tfPff
	.type	_Z11axpb_simd_cILi1EEl14axpb_options_tfPff, @function
_Z11axpb_simd_cILi1EEl14axpb_options_tfPff:
.LFB5716:
	.cfi_startproc
	endbr64
	pushq	%rbp
	.cfi_def_cfa_offset 16
	.cfi_offset 6, -16
	movq	%rsp, %rbp
	.cfi_def_cfa_register 6
	andq	$-64, %rsp
	cmpq	$16, 56(%rbp)
	jne	.L40
	cmpq	$1, 32(%rbp)
	jne	.L41
	movq	64(%rbp), %rax
#APP
# 153 "axpb.cc" 1
	# axpb_simd_c<$1>: ax+c loop begin
# 0 "" 2
#NO_APP
	testq	%rax, %rax
	jg	.L42
.L36:
#APP
# 159 "axpb.cc" 1
	# axpb_simd_c<$1>: ax+c loop end
# 0 "" 2
#NO_APP
	xorl	%eax, %eax
	leave
	.cfi_remember_state
	.cfi_def_cfa 7, 8
	ret
	.p2align 4,,10
	.p2align 3
.L42:
	.cfi_restore_state
	vmovups	(%rdi), %zmm2
	vbroadcastss	%xmm0, %zmm0
	vbroadcastss	%xmm1, %zmm1
	xorl	%edx, %edx
.L37:
	incq	%rdx
	vfmadd132ps	%zmm0, %zmm1, %zmm2
	cmpq	%rdx, %rax
	jne	.L37
	vmovups	%zmm2, (%rdi)
	vzeroupper
	jmp	.L36
.L41:
	leaq	.LC9(%rip), %rcx
	movl	$150, %edx
	leaq	.LC1(%rip), %rsi
	leaq	.LC4(%rip), %rdi
	call	__assert_fail@PLT
.L40:
	leaq	.LC9(%rip), %rcx
	movl	$149, %edx
	leaq	.LC1(%rip), %rsi
	leaq	.LC10(%rip), %rdi
	call	__assert_fail@PLT
	.cfi_endproc
.LFE5716:
	.size	_Z11axpb_simd_cILi1EEl14axpb_options_tfPff, .-_Z11axpb_simd_cILi1EEl14axpb_options_tfPff
	.section	.rodata._Z24axpb_simd_parallel_m_mnmILi2EEl14axpb_options_tfPff.str1.8,"aMS",@progbits,1
	.align 8
.LC11:
	.string	"long int axpb_simd_parallel_m_mnm(axpb_options_t, float, float*, float) [with int c = 2]"
	.section	.text._Z24axpb_simd_parallel_m_mnmILi2EEl14axpb_options_tfPff,"axG",@progbits,_Z24axpb_simd_parallel_m_mnmILi2EEl14axpb_options_tfPff,comdat
	.p2align 4
	.weak	_Z24axpb_simd_parallel_m_mnmILi2EEl14axpb_options_tfPff
	.type	_Z24axpb_simd_parallel_m_mnmILi2EEl14axpb_options_tfPff, @function
_Z24axpb_simd_parallel_m_mnmILi2EEl14axpb_options_tfPff:
.LFB5721:
	.cfi_startproc
	endbr64
	pushq	%rax
	.cfi_def_cfa_offset 16
	popq	%rax
	.cfi_def_cfa_offset 8
	leaq	.LC11(%rip), %rcx
	movl	$287, %edx
	leaq	.LC1(%rip), %rsi
	leaq	.LC6(%rip), %rdi
	subq	$8, %rsp
	.cfi_def_cfa_offset 16
	call	__assert_fail@PLT
	.cfi_endproc
.LFE5721:
	.size	_Z24axpb_simd_parallel_m_mnmILi2EEl14axpb_options_tfPff, .-_Z24axpb_simd_parallel_m_mnmILi2EEl14axpb_options_tfPff
	.section	.rodata._Z15axpb_simd_m_mnmILi2EEl14axpb_options_tfPff.str1.8,"aMS",@progbits,1
	.align 8
.LC12:
	.string	"long int axpb_simd_m_mnm(axpb_options_t, float, float*, float) [with int c = 2]"
	.section	.text._Z15axpb_simd_m_mnmILi2EEl14axpb_options_tfPff,"axG",@progbits,_Z15axpb_simd_m_mnmILi2EEl14axpb_options_tfPff,comdat
	.p2align 4
	.weak	_Z15axpb_simd_m_mnmILi2EEl14axpb_options_tfPff
	.type	_Z15axpb_simd_m_mnmILi2EEl14axpb_options_tfPff, @function
_Z15axpb_simd_m_mnmILi2EEl14axpb_options_tfPff:
.LFB5720:
	.cfi_startproc
	endbr64
	pushq	%rbp
	.cfi_def_cfa_offset 16
	.cfi_offset 6, -16
	movq	%rsp, %rbp
	.cfi_def_cfa_register 6
	movq	56(%rbp), %rax
	movq	64(%rbp), %rdx
	andq	$-64, %rsp
	testb	$31, %al
	jne	.L57
	cmpq	$1, 32(%rbp)
	jne	.L58
	testq	%rax, %rax
	movq	%rdi, %rcx
	leaq	15(%rax), %rdi
	cmovns	%rax, %rdi
	vbroadcastss	%xmm0, %zmm3
	sarq	$4, %rdi
	xorl	%esi, %esi
	vbroadcastss	%xmm1, %zmm2
	cmpq	$15, %rax
	jle	.L54
	.p2align 4,,10
	.p2align 3
.L52:
#APP
# 255 "axpb.cc" 1
	# axpb_simd_m_mnm<$2>: ax+c inner loop begin
# 0 "" 2
#NO_APP
	testq	%rdx, %rdx
	jle	.L49
	vmovups	(%rcx), %zmm1
	vmovups	64(%rcx), %zmm0
	xorl	%eax, %eax
	.p2align 4,,10
	.p2align 3
.L50:
	incq	%rax
	vfmadd132ps	%zmm3, %zmm2, %zmm1
	vfmadd132ps	%zmm3, %zmm2, %zmm0
	cmpq	%rax, %rdx
	jne	.L50
	vmovups	%zmm1, (%rcx)
	vmovups	%zmm0, 64(%rcx)
.L49:
#APP
# 261 "axpb.cc" 1
	# axpb_simd_m_mnm<$2>: ax+c inner loop end
# 0 "" 2
#NO_APP
	addq	$2, %rsi
	subq	$-128, %rcx
	cmpq	%rdi, %rsi
	jl	.L52
.L54:
	xorl	%eax, %eax
	vzeroupper
	leave
	.cfi_remember_state
	.cfi_def_cfa 7, 8
	ret
.L57:
	.cfi_restore_state
	leaq	.LC12(%rip), %rcx
	movl	$251, %edx
	leaq	.LC1(%rip), %rsi
	leaq	.LC8(%rip), %rdi
	call	__assert_fail@PLT
.L58:
	leaq	.LC12(%rip), %rcx
	movl	$252, %edx
	leaq	.LC1(%rip), %rsi
	leaq	.LC4(%rip), %rdi
	call	__assert_fail@PLT
	.cfi_endproc
.LFE5720:
	.size	_Z15axpb_simd_m_mnmILi2EEl14axpb_options_tfPff, .-_Z15axpb_simd_m_mnmILi2EEl14axpb_options_tfPff
	.section	.rodata._Z11axpb_simd_cILi2EEl14axpb_options_tfPff.str1.8,"aMS",@progbits,1
	.align 8
.LC13:
	.string	"long int axpb_simd_c(axpb_options_t, float, float*, float) [with int c = 2]"
	.section	.text._Z11axpb_simd_cILi2EEl14axpb_options_tfPff,"axG",@progbits,_Z11axpb_simd_cILi2EEl14axpb_options_tfPff,comdat
	.p2align 4
	.weak	_Z11axpb_simd_cILi2EEl14axpb_options_tfPff
	.type	_Z11axpb_simd_cILi2EEl14axpb_options_tfPff, @function
_Z11axpb_simd_cILi2EEl14axpb_options_tfPff:
.LFB5719:
	.cfi_startproc
	endbr64
	pushq	%rbp
	.cfi_def_cfa_offset 16
	.cfi_offset 6, -16
	movq	%rsp, %rbp
	.cfi_def_cfa_register 6
	andq	$-64, %rsp
	cmpq	$32, 56(%rbp)
	jne	.L66
	cmpq	$1, 32(%rbp)
	jne	.L67
	movq	64(%rbp), %rdx
#APP
# 153 "axpb.cc" 1
	# axpb_simd_c<$2>: ax+c loop begin
# 0 "" 2
#NO_APP
	testq	%rdx, %rdx
	jle	.L62
	vmovaps	%xmm0, %xmm3
	vmovaps	%xmm1, %xmm2
	vmovups	64(%rdi), %zmm0
	vmovups	(%rdi), %zmm1
	vbroadcastss	%xmm3, %zmm3
	vbroadcastss	%xmm2, %zmm2
	xorl	%eax, %eax
	.p2align 4,,10
	.p2align 3
.L63:
	incq	%rax
	vfmadd132ps	%zmm3, %zmm2, %zmm1
	vfmadd132ps	%zmm3, %zmm2, %zmm0
	cmpq	%rax, %rdx
	jne	.L63
	vmovups	%zmm1, (%rdi)
	vmovups	%zmm0, 64(%rdi)
	vzeroupper
.L62:
#APP
# 159 "axpb.cc" 1
	# axpb_simd_c<$2>: ax+c loop end
# 0 "" 2
#NO_APP
	xorl	%eax, %eax
	leave
	.cfi_remember_state
	.cfi_def_cfa 7, 8
	ret
.L66:
	.cfi_restore_state
	leaq	.LC13(%rip), %rcx
	movl	$149, %edx
	leaq	.LC1(%rip), %rsi
	leaq	.LC10(%rip), %rdi
	call	__assert_fail@PLT
.L67:
	leaq	.LC13(%rip), %rcx
	movl	$150, %edx
	leaq	.LC1(%rip), %rsi
	leaq	.LC4(%rip), %rdi
	call	__assert_fail@PLT
	.cfi_endproc
.LFE5719:
	.size	_Z11axpb_simd_cILi2EEl14axpb_options_tfPff, .-_Z11axpb_simd_cILi2EEl14axpb_options_tfPff
	.section	.rodata._Z24axpb_simd_parallel_m_mnmILi3EEl14axpb_options_tfPff.str1.8,"aMS",@progbits,1
	.align 8
.LC14:
	.string	"long int axpb_simd_parallel_m_mnm(axpb_options_t, float, float*, float) [with int c = 3]"
	.section	.text._Z24axpb_simd_parallel_m_mnmILi3EEl14axpb_options_tfPff,"axG",@progbits,_Z24axpb_simd_parallel_m_mnmILi3EEl14axpb_options_tfPff,comdat
	.p2align 4
	.weak	_Z24axpb_simd_parallel_m_mnmILi3EEl14axpb_options_tfPff
	.type	_Z24axpb_simd_parallel_m_mnmILi3EEl14axpb_options_tfPff, @function
_Z24axpb_simd_parallel_m_mnmILi3EEl14axpb_options_tfPff:
.LFB5724:
	.cfi_startproc
	endbr64
	pushq	%rax
	.cfi_def_cfa_offset 16
	popq	%rax
	.cfi_def_cfa_offset 8
	leaq	.LC14(%rip), %rcx
	movl	$287, %edx
	leaq	.LC1(%rip), %rsi
	leaq	.LC6(%rip), %rdi
	subq	$8, %rsp
	.cfi_def_cfa_offset 16
	call	__assert_fail@PLT
	.cfi_endproc
.LFE5724:
	.size	_Z24axpb_simd_parallel_m_mnmILi3EEl14axpb_options_tfPff, .-_Z24axpb_simd_parallel_m_mnmILi3EEl14axpb_options_tfPff
	.section	.rodata._Z15axpb_simd_m_mnmILi3EEl14axpb_options_tfPff.str1.8,"aMS",@progbits,1
	.align 8
.LC15:
	.string	"long int axpb_simd_m_mnm(axpb_options_t, float, float*, float) [with int c = 3]"
	.section	.text._Z15axpb_simd_m_mnmILi3EEl14axpb_options_tfPff,"axG",@progbits,_Z15axpb_simd_m_mnmILi3EEl14axpb_options_tfPff,comdat
	.p2align 4
	.weak	_Z15axpb_simd_m_mnmILi3EEl14axpb_options_tfPff
	.type	_Z15axpb_simd_m_mnmILi3EEl14axpb_options_tfPff, @function
_Z15axpb_simd_m_mnmILi3EEl14axpb_options_tfPff:
.LFB5723:
	.cfi_startproc
	endbr64
	pushq	%rbp
	.cfi_def_cfa_offset 16
	.cfi_offset 6, -16
	movabsq	$3074457345618258603, %rdx
	movq	%rsp, %rbp
	.cfi_def_cfa_register 6
	movq	56(%rbp), %r9
	movq	64(%rbp), %rcx
	movq	%r9, %rax
	imulq	%rdx
	andq	$-64, %rsp
	movq	%rdx, %rax
	movq	%r9, %rdx
	sarq	$3, %rax
	sarq	$63, %rdx
	subq	%rdx, %rax
	leaq	(%rax,%rax,2), %rax
	salq	$4, %rax
	cmpq	%rax, %r9
	jne	.L82
	cmpq	$1, 32(%rbp)
	jne	.L83
	testq	%r9, %r9
	leaq	15(%r9), %r8
	cmovns	%r9, %r8
	movq	%rdi, %rdx
	sarq	$4, %r8
	xorl	%esi, %esi
	vbroadcastss	%xmm0, %zmm4
	vbroadcastss	%xmm1, %zmm3
	cmpq	$15, %r9
	jle	.L79
	.p2align 4,,10
	.p2align 3
.L77:
#APP
# 255 "axpb.cc" 1
	# axpb_simd_m_mnm<$3>: ax+c inner loop begin
# 0 "" 2
#NO_APP
	testq	%rcx, %rcx
	jle	.L74
	vmovups	(%rdx), %zmm2
	vmovups	64(%rdx), %zmm1
	vmovups	128(%rdx), %zmm0
	xorl	%eax, %eax
	.p2align 4,,10
	.p2align 3
.L75:
	incq	%rax
	vfmadd132ps	%zmm4, %zmm3, %zmm2
	vfmadd132ps	%zmm4, %zmm3, %zmm1
	vfmadd132ps	%zmm4, %zmm3, %zmm0
	cmpq	%rax, %rcx
	jne	.L75
	vmovups	%zmm2, (%rdx)
	vmovups	%zmm1, 64(%rdx)
	vmovups	%zmm0, 128(%rdx)
.L74:
#APP
# 261 "axpb.cc" 1
	# axpb_simd_m_mnm<$3>: ax+c inner loop end
# 0 "" 2
#NO_APP
	addq	$3, %rsi
	addq	$192, %rdx
	cmpq	%r8, %rsi
	jl	.L77
.L79:
	xorl	%eax, %eax
	vzeroupper
	leave
	.cfi_remember_state
	.cfi_def_cfa 7, 8
	ret
.L82:
	.cfi_restore_state
	leaq	.LC15(%rip), %rcx
	movl	$251, %edx
	leaq	.LC1(%rip), %rsi
	leaq	.LC8(%rip), %rdi
	call	__assert_fail@PLT
.L83:
	leaq	.LC15(%rip), %rcx
	movl	$252, %edx
	leaq	.LC1(%rip), %rsi
	leaq	.LC4(%rip), %rdi
	call	__assert_fail@PLT
	.cfi_endproc
.LFE5723:
	.size	_Z15axpb_simd_m_mnmILi3EEl14axpb_options_tfPff, .-_Z15axpb_simd_m_mnmILi3EEl14axpb_options_tfPff
	.section	.rodata._Z11axpb_simd_cILi3EEl14axpb_options_tfPff.str1.8,"aMS",@progbits,1
	.align 8
.LC16:
	.string	"long int axpb_simd_c(axpb_options_t, float, float*, float) [with int c = 3]"
	.section	.text._Z11axpb_simd_cILi3EEl14axpb_options_tfPff,"axG",@progbits,_Z11axpb_simd_cILi3EEl14axpb_options_tfPff,comdat
	.p2align 4
	.weak	_Z11axpb_simd_cILi3EEl14axpb_options_tfPff
	.type	_Z11axpb_simd_cILi3EEl14axpb_options_tfPff, @function
_Z11axpb_simd_cILi3EEl14axpb_options_tfPff:
.LFB5722:
	.cfi_startproc
	endbr64
	pushq	%rbp
	.cfi_def_cfa_offset 16
	.cfi_offset 6, -16
	movq	%rsp, %rbp
	.cfi_def_cfa_register 6
	andq	$-64, %rsp
	cmpq	$48, 56(%rbp)
	jne	.L91
	cmpq	$1, 32(%rbp)
	jne	.L92
	movq	64(%rbp), %rdx
#APP
# 153 "axpb.cc" 1
	# axpb_simd_c<$3>: ax+c loop begin
# 0 "" 2
#NO_APP
	testq	%rdx, %rdx
	jle	.L87
	vmovaps	%xmm0, %xmm4
	vmovaps	%xmm1, %xmm3
	vmovups	(%rdi), %zmm2
	vmovups	64(%rdi), %zmm1
	vmovups	128(%rdi), %zmm0
	vbroadcastss	%xmm4, %zmm4
	vbroadcastss	%xmm3, %zmm3
	xorl	%eax, %eax
	.p2align 4,,10
	.p2align 3
.L88:
	incq	%rax
	vfmadd132ps	%zmm4, %zmm3, %zmm2
	vfmadd132ps	%zmm4, %zmm3, %zmm1
	vfmadd132ps	%zmm4, %zmm3, %zmm0
	cmpq	%rax, %rdx
	jne	.L88
	vmovups	%zmm2, (%rdi)
	vmovups	%zmm1, 64(%rdi)
	vmovups	%zmm0, 128(%rdi)
	vzeroupper
.L87:
#APP
# 159 "axpb.cc" 1
	# axpb_simd_c<$3>: ax+c loop end
# 0 "" 2
#NO_APP
	xorl	%eax, %eax
	leave
	.cfi_remember_state
	.cfi_def_cfa 7, 8
	ret
.L91:
	.cfi_restore_state
	leaq	.LC16(%rip), %rcx
	movl	$149, %edx
	leaq	.LC1(%rip), %rsi
	leaq	.LC10(%rip), %rdi
	call	__assert_fail@PLT
.L92:
	leaq	.LC16(%rip), %rcx
	movl	$150, %edx
	leaq	.LC1(%rip), %rsi
	leaq	.LC4(%rip), %rdi
	call	__assert_fail@PLT
	.cfi_endproc
.LFE5722:
	.size	_Z11axpb_simd_cILi3EEl14axpb_options_tfPff, .-_Z11axpb_simd_cILi3EEl14axpb_options_tfPff
	.section	.rodata._Z24axpb_simd_parallel_m_mnmILi4EEl14axpb_options_tfPff.str1.8,"aMS",@progbits,1
	.align 8
.LC17:
	.string	"long int axpb_simd_parallel_m_mnm(axpb_options_t, float, float*, float) [with int c = 4]"
	.section	.text._Z24axpb_simd_parallel_m_mnmILi4EEl14axpb_options_tfPff,"axG",@progbits,_Z24axpb_simd_parallel_m_mnmILi4EEl14axpb_options_tfPff,comdat
	.p2align 4
	.weak	_Z24axpb_simd_parallel_m_mnmILi4EEl14axpb_options_tfPff
	.type	_Z24axpb_simd_parallel_m_mnmILi4EEl14axpb_options_tfPff, @function
_Z24axpb_simd_parallel_m_mnmILi4EEl14axpb_options_tfPff:
.LFB5727:
	.cfi_startproc
	endbr64
	pushq	%rax
	.cfi_def_cfa_offset 16
	popq	%rax
	.cfi_def_cfa_offset 8
	leaq	.LC17(%rip), %rcx
	movl	$287, %edx
	leaq	.LC1(%rip), %rsi
	leaq	.LC6(%rip), %rdi
	subq	$8, %rsp
	.cfi_def_cfa_offset 16
	call	__assert_fail@PLT
	.cfi_endproc
.LFE5727:
	.size	_Z24axpb_simd_parallel_m_mnmILi4EEl14axpb_options_tfPff, .-_Z24axpb_simd_parallel_m_mnmILi4EEl14axpb_options_tfPff
	.section	.rodata._Z15axpb_simd_m_mnmILi4EEl14axpb_options_tfPff.str1.8,"aMS",@progbits,1
	.align 8
.LC18:
	.string	"long int axpb_simd_m_mnm(axpb_options_t, float, float*, float) [with int c = 4]"
	.section	.text._Z15axpb_simd_m_mnmILi4EEl14axpb_options_tfPff,"axG",@progbits,_Z15axpb_simd_m_mnmILi4EEl14axpb_options_tfPff,comdat
	.p2align 4
	.weak	_Z15axpb_simd_m_mnmILi4EEl14axpb_options_tfPff
	.type	_Z15axpb_simd_m_mnmILi4EEl14axpb_options_tfPff, @function
_Z15axpb_simd_m_mnmILi4EEl14axpb_options_tfPff:
.LFB5726:
	.cfi_startproc
	endbr64
	pushq	%rbp
	.cfi_def_cfa_offset 16
	.cfi_offset 6, -16
	movq	%rsp, %rbp
	.cfi_def_cfa_register 6
	movq	56(%rbp), %rax
	movq	64(%rbp), %rcx
	andq	$-64, %rsp
	testb	$63, %al
	jne	.L107
	cmpq	$1, 32(%rbp)
	jne	.L108
	testq	%rax, %rax
	movq	%rdi, %rdx
	leaq	15(%rax), %rdi
	cmovns	%rax, %rdi
	vmovaps	%xmm0, %xmm2
	vmovaps	%xmm1, %xmm0
	sarq	$4, %rdi
	xorl	%esi, %esi
	vbroadcastss	%xmm2, %zmm1
	vbroadcastss	%xmm0, %zmm0
	cmpq	$15, %rax
	jle	.L104
	.p2align 4,,10
	.p2align 3
.L102:
#APP
# 255 "axpb.cc" 1
	# axpb_simd_m_mnm<$4>: ax+c inner loop begin
# 0 "" 2
#NO_APP
	testq	%rcx, %rcx
	jle	.L99
	vmovups	(%rdx), %zmm5
	vmovups	64(%rdx), %zmm4
	vmovups	128(%rdx), %zmm3
	vmovups	192(%rdx), %zmm2
	xorl	%eax, %eax
	.p2align 4,,10
	.p2align 3
.L100:
	incq	%rax
	vfmadd132ps	%zmm1, %zmm0, %zmm5
	vfmadd132ps	%zmm1, %zmm0, %zmm4
	vfmadd132ps	%zmm1, %zmm0, %zmm3
	vfmadd132ps	%zmm1, %zmm0, %zmm2
	cmpq	%rax, %rcx
	jne	.L100
	vmovups	%zmm5, (%rdx)
	vmovups	%zmm4, 64(%rdx)
	vmovups	%zmm3, 128(%rdx)
	vmovups	%zmm2, 192(%rdx)
.L99:
#APP
# 261 "axpb.cc" 1
	# axpb_simd_m_mnm<$4>: ax+c inner loop end
# 0 "" 2
#NO_APP
	addq	$4, %rsi
	addq	$256, %rdx
	cmpq	%rdi, %rsi
	jl	.L102
.L104:
	xorl	%eax, %eax
	vzeroupper
	leave
	.cfi_remember_state
	.cfi_def_cfa 7, 8
	ret
.L107:
	.cfi_restore_state
	leaq	.LC18(%rip), %rcx
	movl	$251, %edx
	leaq	.LC1(%rip), %rsi
	leaq	.LC8(%rip), %rdi
	call	__assert_fail@PLT
.L108:
	leaq	.LC18(%rip), %rcx
	movl	$252, %edx
	leaq	.LC1(%rip), %rsi
	leaq	.LC4(%rip), %rdi
	call	__assert_fail@PLT
	.cfi_endproc
.LFE5726:
	.size	_Z15axpb_simd_m_mnmILi4EEl14axpb_options_tfPff, .-_Z15axpb_simd_m_mnmILi4EEl14axpb_options_tfPff
	.section	.rodata._Z11axpb_simd_cILi4EEl14axpb_options_tfPff.str1.8,"aMS",@progbits,1
	.align 8
.LC19:
	.string	"long int axpb_simd_c(axpb_options_t, float, float*, float) [with int c = 4]"
	.section	.text._Z11axpb_simd_cILi4EEl14axpb_options_tfPff,"axG",@progbits,_Z11axpb_simd_cILi4EEl14axpb_options_tfPff,comdat
	.p2align 4
	.weak	_Z11axpb_simd_cILi4EEl14axpb_options_tfPff
	.type	_Z11axpb_simd_cILi4EEl14axpb_options_tfPff, @function
_Z11axpb_simd_cILi4EEl14axpb_options_tfPff:
.LFB5725:
	.cfi_startproc
	endbr64
	pushq	%rbp
	.cfi_def_cfa_offset 16
	.cfi_offset 6, -16
	movq	%rsp, %rbp
	.cfi_def_cfa_register 6
	andq	$-64, %rsp
	cmpq	$64, 56(%rbp)
	jne	.L116
	cmpq	$1, 32(%rbp)
	jne	.L117
	movq	64(%rbp), %rdx
#APP
# 153 "axpb.cc" 1
	# axpb_simd_c<$4>: ax+c loop begin
# 0 "" 2
#NO_APP
	testq	%rdx, %rdx
	jle	.L112
	vbroadcastss	%xmm0, %zmm2
	vmovups	(%rdi), %zmm6
	vmovups	64(%rdi), %zmm5
	vmovups	128(%rdi), %zmm4
	vmovups	192(%rdi), %zmm3
	vbroadcastss	%xmm1, %zmm0
	xorl	%eax, %eax
	jmp	.L113
	.p2align 4,,10
	.p2align 3
.L114:
	vmovaps	%zmm1, %zmm3
.L113:
	vfmadd132ps	%zmm2, %zmm0, %zmm3
	incq	%rax
	vfmadd132ps	%zmm2, %zmm0, %zmm6
	vfmadd132ps	%zmm2, %zmm0, %zmm5
	vfmadd132ps	%zmm2, %zmm0, %zmm4
	vmovaps	%zmm3, %zmm1
	cmpq	%rax, %rdx
	jne	.L114
	vmovups	%zmm6, (%rdi)
	vmovups	%zmm5, 64(%rdi)
	vmovups	%zmm4, 128(%rdi)
	vmovups	%zmm3, 192(%rdi)
	vzeroupper
.L112:
#APP
# 159 "axpb.cc" 1
	# axpb_simd_c<$4>: ax+c loop end
# 0 "" 2
#NO_APP
	xorl	%eax, %eax
	leave
	.cfi_remember_state
	.cfi_def_cfa 7, 8
	ret
.L116:
	.cfi_restore_state
	leaq	.LC19(%rip), %rcx
	movl	$149, %edx
	leaq	.LC1(%rip), %rsi
	leaq	.LC10(%rip), %rdi
	call	__assert_fail@PLT
.L117:
	leaq	.LC19(%rip), %rcx
	movl	$150, %edx
	leaq	.LC1(%rip), %rsi
	leaq	.LC4(%rip), %rdi
	call	__assert_fail@PLT
	.cfi_endproc
.LFE5725:
	.size	_Z11axpb_simd_cILi4EEl14axpb_options_tfPff, .-_Z11axpb_simd_cILi4EEl14axpb_options_tfPff
	.section	.rodata._Z24axpb_simd_parallel_m_mnmILi5EEl14axpb_options_tfPff.str1.8,"aMS",@progbits,1
	.align 8
.LC20:
	.string	"long int axpb_simd_parallel_m_mnm(axpb_options_t, float, float*, float) [with int c = 5]"
	.section	.text._Z24axpb_simd_parallel_m_mnmILi5EEl14axpb_options_tfPff,"axG",@progbits,_Z24axpb_simd_parallel_m_mnmILi5EEl14axpb_options_tfPff,comdat
	.p2align 4
	.weak	_Z24axpb_simd_parallel_m_mnmILi5EEl14axpb_options_tfPff
	.type	_Z24axpb_simd_parallel_m_mnmILi5EEl14axpb_options_tfPff, @function
_Z24axpb_simd_parallel_m_mnmILi5EEl14axpb_options_tfPff:
.LFB5730:
	.cfi_startproc
	endbr64
	pushq	%rax
	.cfi_def_cfa_offset 16
	popq	%rax
	.cfi_def_cfa_offset 8
	leaq	.LC20(%rip), %rcx
	movl	$287, %edx
	leaq	.LC1(%rip), %rsi
	leaq	.LC6(%rip), %rdi
	subq	$8, %rsp
	.cfi_def_cfa_offset 16
	call	__assert_fail@PLT
	.cfi_endproc
.LFE5730:
	.size	_Z24axpb_simd_parallel_m_mnmILi5EEl14axpb_options_tfPff, .-_Z24axpb_simd_parallel_m_mnmILi5EEl14axpb_options_tfPff
	.section	.rodata._Z15axpb_simd_m_mnmILi5EEl14axpb_options_tfPff.str1.8,"aMS",@progbits,1
	.align 8
.LC21:
	.string	"long int axpb_simd_m_mnm(axpb_options_t, float, float*, float) [with int c = 5]"
	.section	.text._Z15axpb_simd_m_mnmILi5EEl14axpb_options_tfPff,"axG",@progbits,_Z15axpb_simd_m_mnmILi5EEl14axpb_options_tfPff,comdat
	.p2align 4
	.weak	_Z15axpb_simd_m_mnmILi5EEl14axpb_options_tfPff
	.type	_Z15axpb_simd_m_mnmILi5EEl14axpb_options_tfPff, @function
_Z15axpb_simd_m_mnmILi5EEl14axpb_options_tfPff:
.LFB5729:
	.cfi_startproc
	endbr64
	pushq	%rbp
	.cfi_def_cfa_offset 16
	.cfi_offset 6, -16
	movabsq	$7378697629483820647, %rdx
	movq	%rsp, %rbp
	.cfi_def_cfa_register 6
	movq	56(%rbp), %r9
	movq	64(%rbp), %rcx
	movq	%r9, %rax
	imulq	%rdx
	andq	$-64, %rsp
	movq	%rdx, %rax
	movq	%r9, %rdx
	sarq	$5, %rax
	sarq	$63, %rdx
	subq	%rdx, %rax
	leaq	(%rax,%rax,4), %rax
	salq	$4, %rax
	cmpq	%rax, %r9
	jne	.L132
	cmpq	$1, 32(%rbp)
	jne	.L133
	testq	%r9, %r9
	leaq	15(%r9), %r8
	cmovns	%r9, %r8
	vmovaps	%xmm0, %xmm2
	vmovaps	%xmm1, %xmm0
	sarq	$4, %r8
	movq	%rdi, %rdx
	xorl	%esi, %esi
	vbroadcastss	%xmm2, %zmm1
	vbroadcastss	%xmm0, %zmm0
	cmpq	$15, %r9
	jle	.L129
	.p2align 4,,10
	.p2align 3
.L127:
#APP
# 255 "axpb.cc" 1
	# axpb_simd_m_mnm<$5>: ax+c inner loop begin
# 0 "" 2
#NO_APP
	testq	%rcx, %rcx
	jle	.L124
	vmovups	(%rdx), %zmm6
	vmovups	64(%rdx), %zmm5
	vmovups	128(%rdx), %zmm4
	vmovups	192(%rdx), %zmm3
	vmovups	256(%rdx), %zmm2
	xorl	%eax, %eax
	.p2align 4,,10
	.p2align 3
.L125:
	incq	%rax
	vfmadd132ps	%zmm1, %zmm0, %zmm6
	vfmadd132ps	%zmm1, %zmm0, %zmm5
	vfmadd132ps	%zmm1, %zmm0, %zmm4
	vfmadd132ps	%zmm1, %zmm0, %zmm3
	vfmadd132ps	%zmm1, %zmm0, %zmm2
	cmpq	%rax, %rcx
	jne	.L125
	vmovups	%zmm6, (%rdx)
	vmovups	%zmm5, 64(%rdx)
	vmovups	%zmm4, 128(%rdx)
	vmovups	%zmm3, 192(%rdx)
	vmovups	%zmm2, 256(%rdx)
.L124:
#APP
# 261 "axpb.cc" 1
	# axpb_simd_m_mnm<$5>: ax+c inner loop end
# 0 "" 2
#NO_APP
	addq	$5, %rsi
	addq	$320, %rdx
	cmpq	%r8, %rsi
	jl	.L127
.L129:
	xorl	%eax, %eax
	vzeroupper
	leave
	.cfi_remember_state
	.cfi_def_cfa 7, 8
	ret
.L132:
	.cfi_restore_state
	leaq	.LC21(%rip), %rcx
	movl	$251, %edx
	leaq	.LC1(%rip), %rsi
	leaq	.LC8(%rip), %rdi
	call	__assert_fail@PLT
.L133:
	leaq	.LC21(%rip), %rcx
	movl	$252, %edx
	leaq	.LC1(%rip), %rsi
	leaq	.LC4(%rip), %rdi
	call	__assert_fail@PLT
	.cfi_endproc
.LFE5729:
	.size	_Z15axpb_simd_m_mnmILi5EEl14axpb_options_tfPff, .-_Z15axpb_simd_m_mnmILi5EEl14axpb_options_tfPff
	.section	.rodata._Z11axpb_simd_cILi5EEl14axpb_options_tfPff.str1.8,"aMS",@progbits,1
	.align 8
.LC22:
	.string	"long int axpb_simd_c(axpb_options_t, float, float*, float) [with int c = 5]"
	.section	.text._Z11axpb_simd_cILi5EEl14axpb_options_tfPff,"axG",@progbits,_Z11axpb_simd_cILi5EEl14axpb_options_tfPff,comdat
	.p2align 4
	.weak	_Z11axpb_simd_cILi5EEl14axpb_options_tfPff
	.type	_Z11axpb_simd_cILi5EEl14axpb_options_tfPff, @function
_Z11axpb_simd_cILi5EEl14axpb_options_tfPff:
.LFB5728:
	.cfi_startproc
	endbr64
	pushq	%rbp
	.cfi_def_cfa_offset 16
	.cfi_offset 6, -16
	movq	%rsp, %rbp
	.cfi_def_cfa_register 6
	andq	$-64, %rsp
	cmpq	$80, 56(%rbp)
	jne	.L141
	cmpq	$1, 32(%rbp)
	jne	.L142
	movq	64(%rbp), %rdx
#APP
# 153 "axpb.cc" 1
	# axpb_simd_c<$5>: ax+c loop begin
# 0 "" 2
#NO_APP
	testq	%rdx, %rdx
	jle	.L137
	vbroadcastss	%xmm0, %zmm2
	vmovups	(%rdi), %zmm7
	vmovups	64(%rdi), %zmm6
	vmovups	128(%rdi), %zmm5
	vmovups	192(%rdi), %zmm4
	vmovups	256(%rdi), %zmm3
	vbroadcastss	%xmm1, %zmm0
	xorl	%eax, %eax
	jmp	.L138
	.p2align 4,,10
	.p2align 3
.L139:
	vmovaps	%zmm1, %zmm3
.L138:
	vfmadd132ps	%zmm2, %zmm0, %zmm3
	incq	%rax
	vfmadd132ps	%zmm2, %zmm0, %zmm7
	vfmadd132ps	%zmm2, %zmm0, %zmm6
	vfmadd132ps	%zmm2, %zmm0, %zmm5
	vfmadd132ps	%zmm2, %zmm0, %zmm4
	vmovaps	%zmm3, %zmm1
	cmpq	%rax, %rdx
	jne	.L139
	vmovups	%zmm7, (%rdi)
	vmovups	%zmm6, 64(%rdi)
	vmovups	%zmm5, 128(%rdi)
	vmovups	%zmm4, 192(%rdi)
	vmovups	%zmm3, 256(%rdi)
	vzeroupper
.L137:
#APP
# 159 "axpb.cc" 1
	# axpb_simd_c<$5>: ax+c loop end
# 0 "" 2
#NO_APP
	xorl	%eax, %eax
	leave
	.cfi_remember_state
	.cfi_def_cfa 7, 8
	ret
.L141:
	.cfi_restore_state
	leaq	.LC22(%rip), %rcx
	movl	$149, %edx
	leaq	.LC1(%rip), %rsi
	leaq	.LC10(%rip), %rdi
	call	__assert_fail@PLT
.L142:
	leaq	.LC22(%rip), %rcx
	movl	$150, %edx
	leaq	.LC1(%rip), %rsi
	leaq	.LC4(%rip), %rdi
	call	__assert_fail@PLT
	.cfi_endproc
.LFE5728:
	.size	_Z11axpb_simd_cILi5EEl14axpb_options_tfPff, .-_Z11axpb_simd_cILi5EEl14axpb_options_tfPff
	.section	.rodata._Z24axpb_simd_parallel_m_mnmILi6EEl14axpb_options_tfPff.str1.8,"aMS",@progbits,1
	.align 8
.LC23:
	.string	"long int axpb_simd_parallel_m_mnm(axpb_options_t, float, float*, float) [with int c = 6]"
	.section	.text._Z24axpb_simd_parallel_m_mnmILi6EEl14axpb_options_tfPff,"axG",@progbits,_Z24axpb_simd_parallel_m_mnmILi6EEl14axpb_options_tfPff,comdat
	.p2align 4
	.weak	_Z24axpb_simd_parallel_m_mnmILi6EEl14axpb_options_tfPff
	.type	_Z24axpb_simd_parallel_m_mnmILi6EEl14axpb_options_tfPff, @function
_Z24axpb_simd_parallel_m_mnmILi6EEl14axpb_options_tfPff:
.LFB5733:
	.cfi_startproc
	endbr64
	pushq	%rax
	.cfi_def_cfa_offset 16
	popq	%rax
	.cfi_def_cfa_offset 8
	leaq	.LC23(%rip), %rcx
	movl	$287, %edx
	leaq	.LC1(%rip), %rsi
	leaq	.LC6(%rip), %rdi
	subq	$8, %rsp
	.cfi_def_cfa_offset 16
	call	__assert_fail@PLT
	.cfi_endproc
.LFE5733:
	.size	_Z24axpb_simd_parallel_m_mnmILi6EEl14axpb_options_tfPff, .-_Z24axpb_simd_parallel_m_mnmILi6EEl14axpb_options_tfPff
	.section	.rodata._Z15axpb_simd_m_mnmILi6EEl14axpb_options_tfPff.str1.8,"aMS",@progbits,1
	.align 8
.LC24:
	.string	"long int axpb_simd_m_mnm(axpb_options_t, float, float*, float) [with int c = 6]"
	.section	.text._Z15axpb_simd_m_mnmILi6EEl14axpb_options_tfPff,"axG",@progbits,_Z15axpb_simd_m_mnmILi6EEl14axpb_options_tfPff,comdat
	.p2align 4
	.weak	_Z15axpb_simd_m_mnmILi6EEl14axpb_options_tfPff
	.type	_Z15axpb_simd_m_mnmILi6EEl14axpb_options_tfPff, @function
_Z15axpb_simd_m_mnmILi6EEl14axpb_options_tfPff:
.LFB5732:
	.cfi_startproc
	endbr64
	pushq	%rbp
	.cfi_def_cfa_offset 16
	.cfi_offset 6, -16
	movabsq	$3074457345618258603, %rdx
	movq	%rsp, %rbp
	.cfi_def_cfa_register 6
	movq	56(%rbp), %r9
	movq	64(%rbp), %rcx
	movq	%r9, %rax
	imulq	%rdx
	andq	$-64, %rsp
	movq	%rdx, %rax
	movq	%r9, %rdx
	sarq	$4, %rax
	sarq	$63, %rdx
	subq	%rdx, %rax
	leaq	(%rax,%rax,2), %rax
	salq	$5, %rax
	cmpq	%rax, %r9
	jne	.L157
	cmpq	$1, 32(%rbp)
	jne	.L158
	testq	%r9, %r9
	leaq	15(%r9), %r8
	cmovns	%r9, %r8
	vmovaps	%xmm0, %xmm2
	vmovaps	%xmm1, %xmm0
	sarq	$4, %r8
	movq	%rdi, %rdx
	xorl	%esi, %esi
	vbroadcastss	%xmm2, %zmm1
	vbroadcastss	%xmm0, %zmm0
	cmpq	$15, %r9
	jle	.L154
	.p2align 4,,10
	.p2align 3
.L152:
#APP
# 255 "axpb.cc" 1
	# axpb_simd_m_mnm<$6>: ax+c inner loop begin
# 0 "" 2
#NO_APP
	testq	%rcx, %rcx
	jle	.L149
	vmovups	(%rdx), %zmm7
	vmovups	64(%rdx), %zmm6
	vmovups	128(%rdx), %zmm5
	vmovups	192(%rdx), %zmm4
	vmovups	256(%rdx), %zmm3
	vmovups	320(%rdx), %zmm2
	xorl	%eax, %eax
	.p2align 4,,10
	.p2align 3
.L150:
	incq	%rax
	vfmadd132ps	%zmm1, %zmm0, %zmm7
	vfmadd132ps	%zmm1, %zmm0, %zmm6
	vfmadd132ps	%zmm1, %zmm0, %zmm5
	vfmadd132ps	%zmm1, %zmm0, %zmm4
	vfmadd132ps	%zmm1, %zmm0, %zmm3
	vfmadd132ps	%zmm1, %zmm0, %zmm2
	cmpq	%rax, %rcx
	jne	.L150
	vmovups	%zmm7, (%rdx)
	vmovups	%zmm6, 64(%rdx)
	vmovups	%zmm5, 128(%rdx)
	vmovups	%zmm4, 192(%rdx)
	vmovups	%zmm3, 256(%rdx)
	vmovups	%zmm2, 320(%rdx)
.L149:
#APP
# 261 "axpb.cc" 1
	# axpb_simd_m_mnm<$6>: ax+c inner loop end
# 0 "" 2
#NO_APP
	addq	$6, %rsi
	addq	$384, %rdx
	cmpq	%r8, %rsi
	jl	.L152
.L154:
	xorl	%eax, %eax
	vzeroupper
	leave
	.cfi_remember_state
	.cfi_def_cfa 7, 8
	ret
.L157:
	.cfi_restore_state
	leaq	.LC24(%rip), %rcx
	movl	$251, %edx
	leaq	.LC1(%rip), %rsi
	leaq	.LC8(%rip), %rdi
	call	__assert_fail@PLT
.L158:
	leaq	.LC24(%rip), %rcx
	movl	$252, %edx
	leaq	.LC1(%rip), %rsi
	leaq	.LC4(%rip), %rdi
	call	__assert_fail@PLT
	.cfi_endproc
.LFE5732:
	.size	_Z15axpb_simd_m_mnmILi6EEl14axpb_options_tfPff, .-_Z15axpb_simd_m_mnmILi6EEl14axpb_options_tfPff
	.section	.rodata._Z11axpb_simd_cILi6EEl14axpb_options_tfPff.str1.8,"aMS",@progbits,1
	.align 8
.LC25:
	.string	"long int axpb_simd_c(axpb_options_t, float, float*, float) [with int c = 6]"
	.section	.text._Z11axpb_simd_cILi6EEl14axpb_options_tfPff,"axG",@progbits,_Z11axpb_simd_cILi6EEl14axpb_options_tfPff,comdat
	.p2align 4
	.weak	_Z11axpb_simd_cILi6EEl14axpb_options_tfPff
	.type	_Z11axpb_simd_cILi6EEl14axpb_options_tfPff, @function
_Z11axpb_simd_cILi6EEl14axpb_options_tfPff:
.LFB5731:
	.cfi_startproc
	endbr64
	pushq	%rbp
	.cfi_def_cfa_offset 16
	.cfi_offset 6, -16
	movq	%rsp, %rbp
	.cfi_def_cfa_register 6
	andq	$-64, %rsp
	cmpq	$96, 56(%rbp)
	jne	.L166
	cmpq	$1, 32(%rbp)
	jne	.L167
	movq	64(%rbp), %rdx
#APP
# 153 "axpb.cc" 1
	# axpb_simd_c<$6>: ax+c loop begin
# 0 "" 2
#NO_APP
	testq	%rdx, %rdx
	jle	.L162
	vbroadcastss	%xmm0, %zmm2
	vmovups	(%rdi), %zmm8
	vmovups	64(%rdi), %zmm7
	vmovups	128(%rdi), %zmm6
	vmovups	192(%rdi), %zmm5
	vmovups	256(%rdi), %zmm4
	vmovups	320(%rdi), %zmm3
	vbroadcastss	%xmm1, %zmm0
	xorl	%eax, %eax
	jmp	.L163
	.p2align 4,,10
	.p2align 3
.L164:
	vmovaps	%zmm1, %zmm3
.L163:
	vfmadd132ps	%zmm2, %zmm0, %zmm3
	incq	%rax
	vfmadd132ps	%zmm2, %zmm0, %zmm8
	vfmadd132ps	%zmm2, %zmm0, %zmm7
	vfmadd132ps	%zmm2, %zmm0, %zmm6
	vfmadd132ps	%zmm2, %zmm0, %zmm5
	vfmadd132ps	%zmm2, %zmm0, %zmm4
	vmovaps	%zmm3, %zmm1
	cmpq	%rax, %rdx
	jne	.L164
	vmovups	%zmm8, (%rdi)
	vmovups	%zmm7, 64(%rdi)
	vmovups	%zmm6, 128(%rdi)
	vmovups	%zmm5, 192(%rdi)
	vmovups	%zmm4, 256(%rdi)
	vmovups	%zmm3, 320(%rdi)
	vzeroupper
.L162:
#APP
# 159 "axpb.cc" 1
	# axpb_simd_c<$6>: ax+c loop end
# 0 "" 2
#NO_APP
	xorl	%eax, %eax
	leave
	.cfi_remember_state
	.cfi_def_cfa 7, 8
	ret
.L166:
	.cfi_restore_state
	leaq	.LC25(%rip), %rcx
	movl	$149, %edx
	leaq	.LC1(%rip), %rsi
	leaq	.LC10(%rip), %rdi
	call	__assert_fail@PLT
.L167:
	leaq	.LC25(%rip), %rcx
	movl	$150, %edx
	leaq	.LC1(%rip), %rsi
	leaq	.LC4(%rip), %rdi
	call	__assert_fail@PLT
	.cfi_endproc
.LFE5731:
	.size	_Z11axpb_simd_cILi6EEl14axpb_options_tfPff, .-_Z11axpb_simd_cILi6EEl14axpb_options_tfPff
	.section	.rodata._Z24axpb_simd_parallel_m_mnmILi7EEl14axpb_options_tfPff.str1.8,"aMS",@progbits,1
	.align 8
.LC26:
	.string	"long int axpb_simd_parallel_m_mnm(axpb_options_t, float, float*, float) [with int c = 7]"
	.section	.text._Z24axpb_simd_parallel_m_mnmILi7EEl14axpb_options_tfPff,"axG",@progbits,_Z24axpb_simd_parallel_m_mnmILi7EEl14axpb_options_tfPff,comdat
	.p2align 4
	.weak	_Z24axpb_simd_parallel_m_mnmILi7EEl14axpb_options_tfPff
	.type	_Z24axpb_simd_parallel_m_mnmILi7EEl14axpb_options_tfPff, @function
_Z24axpb_simd_parallel_m_mnmILi7EEl14axpb_options_tfPff:
.LFB5736:
	.cfi_startproc
	endbr64
	pushq	%rax
	.cfi_def_cfa_offset 16
	popq	%rax
	.cfi_def_cfa_offset 8
	leaq	.LC26(%rip), %rcx
	movl	$287, %edx
	leaq	.LC1(%rip), %rsi
	leaq	.LC6(%rip), %rdi
	subq	$8, %rsp
	.cfi_def_cfa_offset 16
	call	__assert_fail@PLT
	.cfi_endproc
.LFE5736:
	.size	_Z24axpb_simd_parallel_m_mnmILi7EEl14axpb_options_tfPff, .-_Z24axpb_simd_parallel_m_mnmILi7EEl14axpb_options_tfPff
	.section	.rodata._Z15axpb_simd_m_mnmILi7EEl14axpb_options_tfPff.str1.8,"aMS",@progbits,1
	.align 8
.LC27:
	.string	"long int axpb_simd_m_mnm(axpb_options_t, float, float*, float) [with int c = 7]"
	.section	.text._Z15axpb_simd_m_mnmILi7EEl14axpb_options_tfPff,"axG",@progbits,_Z15axpb_simd_m_mnmILi7EEl14axpb_options_tfPff,comdat
	.p2align 4
	.weak	_Z15axpb_simd_m_mnmILi7EEl14axpb_options_tfPff
	.type	_Z15axpb_simd_m_mnmILi7EEl14axpb_options_tfPff, @function
_Z15axpb_simd_m_mnmILi7EEl14axpb_options_tfPff:
.LFB5735:
	.cfi_startproc
	endbr64
	pushq	%rbp
	.cfi_def_cfa_offset 16
	.cfi_offset 6, -16
	movabsq	$5270498306774157605, %rdx
	movq	%rsp, %rbp
	.cfi_def_cfa_register 6
	movq	56(%rbp), %r8
	movq	64(%rbp), %rsi
	movq	%r8, %rax
	imulq	%rdx
	andq	$-64, %rsp
	movq	%rdx, %rax
	movq	%r8, %rdx
	sarq	$5, %rax
	sarq	$63, %rdx
	subq	%rdx, %rax
	imulq	$112, %rax, %rax
	cmpq	%rax, %r8
	jne	.L182
	cmpq	$1, 32(%rbp)
	jne	.L183
	movq	%rdi, %rcx
	testq	%r8, %r8
	leaq	15(%r8), %rdi
	cmovns	%r8, %rdi
	vmovaps	%xmm0, %xmm2
	vmovaps	%xmm1, %xmm0
	movq	%rcx, %rdx
	sarq	$4, %rdi
	xorl	%ecx, %ecx
	vbroadcastss	%xmm2, %zmm1
	vbroadcastss	%xmm0, %zmm0
	cmpq	$15, %r8
	jle	.L179
	.p2align 4,,10
	.p2align 3
.L177:
#APP
# 255 "axpb.cc" 1
	# axpb_simd_m_mnm<$7>: ax+c inner loop begin
# 0 "" 2
#NO_APP
	testq	%rsi, %rsi
	jle	.L174
	vmovups	(%rdx), %zmm8
	vmovups	64(%rdx), %zmm7
	vmovups	128(%rdx), %zmm6
	vmovups	192(%rdx), %zmm5
	vmovups	256(%rdx), %zmm4
	vmovups	320(%rdx), %zmm3
	vmovups	384(%rdx), %zmm2
	xorl	%eax, %eax
	.p2align 4,,10
	.p2align 3
.L175:
	incq	%rax
	vfmadd132ps	%zmm1, %zmm0, %zmm8
	vfmadd132ps	%zmm1, %zmm0, %zmm7
	vfmadd132ps	%zmm1, %zmm0, %zmm6
	vfmadd132ps	%zmm1, %zmm0, %zmm5
	vfmadd132ps	%zmm1, %zmm0, %zmm4
	vfmadd132ps	%zmm1, %zmm0, %zmm3
	vfmadd132ps	%zmm1, %zmm0, %zmm2
	cmpq	%rax, %rsi
	jne	.L175
	vmovups	%zmm8, (%rdx)
	vmovups	%zmm7, 64(%rdx)
	vmovups	%zmm6, 128(%rdx)
	vmovups	%zmm5, 192(%rdx)
	vmovups	%zmm4, 256(%rdx)
	vmovups	%zmm3, 320(%rdx)
	vmovups	%zmm2, 384(%rdx)
.L174:
#APP
# 261 "axpb.cc" 1
	# axpb_simd_m_mnm<$7>: ax+c inner loop end
# 0 "" 2
#NO_APP
	addq	$7, %rcx
	addq	$448, %rdx
	cmpq	%rdi, %rcx
	jl	.L177
.L179:
	xorl	%eax, %eax
	vzeroupper
	leave
	.cfi_remember_state
	.cfi_def_cfa 7, 8
	ret
.L182:
	.cfi_restore_state
	leaq	.LC27(%rip), %rcx
	movl	$251, %edx
	leaq	.LC1(%rip), %rsi
	leaq	.LC8(%rip), %rdi
	call	__assert_fail@PLT
.L183:
	leaq	.LC27(%rip), %rcx
	movl	$252, %edx
	leaq	.LC1(%rip), %rsi
	leaq	.LC4(%rip), %rdi
	call	__assert_fail@PLT
	.cfi_endproc
.LFE5735:
	.size	_Z15axpb_simd_m_mnmILi7EEl14axpb_options_tfPff, .-_Z15axpb_simd_m_mnmILi7EEl14axpb_options_tfPff
	.section	.rodata._Z11axpb_simd_cILi7EEl14axpb_options_tfPff.str1.8,"aMS",@progbits,1
	.align 8
.LC28:
	.string	"long int axpb_simd_c(axpb_options_t, float, float*, float) [with int c = 7]"
	.section	.text._Z11axpb_simd_cILi7EEl14axpb_options_tfPff,"axG",@progbits,_Z11axpb_simd_cILi7EEl14axpb_options_tfPff,comdat
	.p2align 4
	.weak	_Z11axpb_simd_cILi7EEl14axpb_options_tfPff
	.type	_Z11axpb_simd_cILi7EEl14axpb_options_tfPff, @function
_Z11axpb_simd_cILi7EEl14axpb_options_tfPff:
.LFB5734:
	.cfi_startproc
	endbr64
	pushq	%rbp
	.cfi_def_cfa_offset 16
	.cfi_offset 6, -16
	movq	%rsp, %rbp
	.cfi_def_cfa_register 6
	andq	$-64, %rsp
	cmpq	$112, 56(%rbp)
	jne	.L191
	cmpq	$1, 32(%rbp)
	jne	.L192
	movq	64(%rbp), %rdx
#APP
# 153 "axpb.cc" 1
	# axpb_simd_c<$7>: ax+c loop begin
# 0 "" 2
#NO_APP
	testq	%rdx, %rdx
	jle	.L187
	vbroadcastss	%xmm0, %zmm2
	vmovups	(%rdi), %zmm9
	vmovups	64(%rdi), %zmm8
	vmovups	128(%rdi), %zmm7
	vmovups	192(%rdi), %zmm6
	vmovups	256(%rdi), %zmm5
	vmovups	320(%rdi), %zmm4
	vmovups	384(%rdi), %zmm3
	vbroadcastss	%xmm1, %zmm0
	xorl	%eax, %eax
	jmp	.L188
	.p2align 4,,10
	.p2align 3
.L189:
	vmovaps	%zmm1, %zmm3
.L188:
	vfmadd132ps	%zmm2, %zmm0, %zmm3
	incq	%rax
	vfmadd132ps	%zmm2, %zmm0, %zmm9
	vfmadd132ps	%zmm2, %zmm0, %zmm8
	vfmadd132ps	%zmm2, %zmm0, %zmm7
	vfmadd132ps	%zmm2, %zmm0, %zmm6
	vfmadd132ps	%zmm2, %zmm0, %zmm5
	vfmadd132ps	%zmm2, %zmm0, %zmm4
	vmovaps	%zmm3, %zmm1
	cmpq	%rax, %rdx
	jne	.L189
	vmovups	%zmm9, (%rdi)
	vmovups	%zmm8, 64(%rdi)
	vmovups	%zmm7, 128(%rdi)
	vmovups	%zmm6, 192(%rdi)
	vmovups	%zmm5, 256(%rdi)
	vmovups	%zmm4, 320(%rdi)
	vmovups	%zmm3, 384(%rdi)
	vzeroupper
.L187:
#APP
# 159 "axpb.cc" 1
	# axpb_simd_c<$7>: ax+c loop end
# 0 "" 2
#NO_APP
	xorl	%eax, %eax
	leave
	.cfi_remember_state
	.cfi_def_cfa 7, 8
	ret
.L191:
	.cfi_restore_state
	leaq	.LC28(%rip), %rcx
	movl	$149, %edx
	leaq	.LC1(%rip), %rsi
	leaq	.LC10(%rip), %rdi
	call	__assert_fail@PLT
.L192:
	leaq	.LC28(%rip), %rcx
	movl	$150, %edx
	leaq	.LC1(%rip), %rsi
	leaq	.LC4(%rip), %rdi
	call	__assert_fail@PLT
	.cfi_endproc
.LFE5734:
	.size	_Z11axpb_simd_cILi7EEl14axpb_options_tfPff, .-_Z11axpb_simd_cILi7EEl14axpb_options_tfPff
	.section	.rodata._Z24axpb_simd_parallel_m_mnmILi8EEl14axpb_options_tfPff.str1.8,"aMS",@progbits,1
	.align 8
.LC29:
	.string	"long int axpb_simd_parallel_m_mnm(axpb_options_t, float, float*, float) [with int c = 8]"
	.section	.text._Z24axpb_simd_parallel_m_mnmILi8EEl14axpb_options_tfPff,"axG",@progbits,_Z24axpb_simd_parallel_m_mnmILi8EEl14axpb_options_tfPff,comdat
	.p2align 4
	.weak	_Z24axpb_simd_parallel_m_mnmILi8EEl14axpb_options_tfPff
	.type	_Z24axpb_simd_parallel_m_mnmILi8EEl14axpb_options_tfPff, @function
_Z24axpb_simd_parallel_m_mnmILi8EEl14axpb_options_tfPff:
.LFB5739:
	.cfi_startproc
	endbr64
	pushq	%rax
	.cfi_def_cfa_offset 16
	popq	%rax
	.cfi_def_cfa_offset 8
	leaq	.LC29(%rip), %rcx
	movl	$287, %edx
	leaq	.LC1(%rip), %rsi
	leaq	.LC6(%rip), %rdi
	subq	$8, %rsp
	.cfi_def_cfa_offset 16
	call	__assert_fail@PLT
	.cfi_endproc
.LFE5739:
	.size	_Z24axpb_simd_parallel_m_mnmILi8EEl14axpb_options_tfPff, .-_Z24axpb_simd_parallel_m_mnmILi8EEl14axpb_options_tfPff
	.section	.rodata._Z15axpb_simd_m_mnmILi8EEl14axpb_options_tfPff.str1.8,"aMS",@progbits,1
	.align 8
.LC30:
	.string	"long int axpb_simd_m_mnm(axpb_options_t, float, float*, float) [with int c = 8]"
	.section	.text._Z15axpb_simd_m_mnmILi8EEl14axpb_options_tfPff,"axG",@progbits,_Z15axpb_simd_m_mnmILi8EEl14axpb_options_tfPff,comdat
	.p2align 4
	.weak	_Z15axpb_simd_m_mnmILi8EEl14axpb_options_tfPff
	.type	_Z15axpb_simd_m_mnmILi8EEl14axpb_options_tfPff, @function
_Z15axpb_simd_m_mnmILi8EEl14axpb_options_tfPff:
.LFB5738:
	.cfi_startproc
	endbr64
	pushq	%rbp
	.cfi_def_cfa_offset 16
	.cfi_offset 6, -16
	movq	%rsp, %rbp
	.cfi_def_cfa_register 6
	movq	56(%rbp), %rax
	movq	64(%rbp), %rcx
	andq	$-64, %rsp
	testb	$127, %al
	jne	.L207
	cmpq	$1, 32(%rbp)
	jne	.L208
	testq	%rax, %rax
	movq	%rdi, %rdx
	leaq	15(%rax), %rdi
	cmovns	%rax, %rdi
	vmovaps	%xmm0, %xmm2
	vmovaps	%xmm1, %xmm0
	sarq	$4, %rdi
	xorl	%esi, %esi
	vbroadcastss	%xmm2, %zmm1
	vbroadcastss	%xmm0, %zmm0
	cmpq	$15, %rax
	jle	.L204
	.p2align 4,,10
	.p2align 3
.L202:
#APP
# 255 "axpb.cc" 1
	# axpb_simd_m_mnm<$8>: ax+c inner loop begin
# 0 "" 2
#NO_APP
	testq	%rcx, %rcx
	jle	.L199
	vmovups	(%rdx), %zmm9
	vmovups	64(%rdx), %zmm8
	vmovups	128(%rdx), %zmm7
	vmovups	192(%rdx), %zmm6
	vmovups	256(%rdx), %zmm5
	vmovups	320(%rdx), %zmm4
	vmovups	384(%rdx), %zmm3
	vmovups	448(%rdx), %zmm2
	xorl	%eax, %eax
	.p2align 4,,10
	.p2align 3
.L200:
	incq	%rax
	vfmadd132ps	%zmm1, %zmm0, %zmm9
	vfmadd132ps	%zmm1, %zmm0, %zmm8
	vfmadd132ps	%zmm1, %zmm0, %zmm7
	vfmadd132ps	%zmm1, %zmm0, %zmm6
	vfmadd132ps	%zmm1, %zmm0, %zmm5
	vfmadd132ps	%zmm1, %zmm0, %zmm4
	vfmadd132ps	%zmm1, %zmm0, %zmm3
	vfmadd132ps	%zmm1, %zmm0, %zmm2
	cmpq	%rax, %rcx
	jne	.L200
	vmovups	%zmm9, (%rdx)
	vmovups	%zmm8, 64(%rdx)
	vmovups	%zmm7, 128(%rdx)
	vmovups	%zmm6, 192(%rdx)
	vmovups	%zmm5, 256(%rdx)
	vmovups	%zmm4, 320(%rdx)
	vmovups	%zmm3, 384(%rdx)
	vmovups	%zmm2, 448(%rdx)
.L199:
#APP
# 261 "axpb.cc" 1
	# axpb_simd_m_mnm<$8>: ax+c inner loop end
# 0 "" 2
#NO_APP
	addq	$8, %rsi
	addq	$512, %rdx
	cmpq	%rdi, %rsi
	jl	.L202
.L204:
	xorl	%eax, %eax
	vzeroupper
	leave
	.cfi_remember_state
	.cfi_def_cfa 7, 8
	ret
.L207:
	.cfi_restore_state
	leaq	.LC30(%rip), %rcx
	movl	$251, %edx
	leaq	.LC1(%rip), %rsi
	leaq	.LC8(%rip), %rdi
	call	__assert_fail@PLT
.L208:
	leaq	.LC30(%rip), %rcx
	movl	$252, %edx
	leaq	.LC1(%rip), %rsi
	leaq	.LC4(%rip), %rdi
	call	__assert_fail@PLT
	.cfi_endproc
.LFE5738:
	.size	_Z15axpb_simd_m_mnmILi8EEl14axpb_options_tfPff, .-_Z15axpb_simd_m_mnmILi8EEl14axpb_options_tfPff
	.section	.rodata._Z11axpb_simd_cILi8EEl14axpb_options_tfPff.str1.8,"aMS",@progbits,1
	.align 8
.LC31:
	.string	"long int axpb_simd_c(axpb_options_t, float, float*, float) [with int c = 8]"
	.section	.text._Z11axpb_simd_cILi8EEl14axpb_options_tfPff,"axG",@progbits,_Z11axpb_simd_cILi8EEl14axpb_options_tfPff,comdat
	.p2align 4
	.weak	_Z11axpb_simd_cILi8EEl14axpb_options_tfPff
	.type	_Z11axpb_simd_cILi8EEl14axpb_options_tfPff, @function
_Z11axpb_simd_cILi8EEl14axpb_options_tfPff:
.LFB5737:
	.cfi_startproc
	endbr64
	pushq	%rbp
	.cfi_def_cfa_offset 16
	.cfi_offset 6, -16
	movq	%rsp, %rbp
	.cfi_def_cfa_register 6
	andq	$-64, %rsp
	cmpq	$128, 56(%rbp)
	jne	.L216
	cmpq	$1, 32(%rbp)
	jne	.L217
	movq	64(%rbp), %rdx
#APP
# 153 "axpb.cc" 1
	# axpb_simd_c<$8>: ax+c loop begin
# 0 "" 2
#NO_APP
	testq	%rdx, %rdx
	jle	.L212
	vbroadcastss	%xmm0, %zmm2
	vmovups	(%rdi), %zmm10
	vmovups	64(%rdi), %zmm9
	vmovups	128(%rdi), %zmm8
	vmovups	192(%rdi), %zmm7
	vmovups	256(%rdi), %zmm6
	vmovups	320(%rdi), %zmm5
	vmovups	384(%rdi), %zmm4
	vmovups	448(%rdi), %zmm3
	vbroadcastss	%xmm1, %zmm0
	xorl	%eax, %eax
	jmp	.L213
	.p2align 4,,10
	.p2align 3
.L214:
	vmovaps	%zmm1, %zmm3
.L213:
	vfmadd132ps	%zmm2, %zmm0, %zmm3
	incq	%rax
	vfmadd132ps	%zmm2, %zmm0, %zmm10
	vfmadd132ps	%zmm2, %zmm0, %zmm9
	vfmadd132ps	%zmm2, %zmm0, %zmm8
	vfmadd132ps	%zmm2, %zmm0, %zmm7
	vfmadd132ps	%zmm2, %zmm0, %zmm6
	vfmadd132ps	%zmm2, %zmm0, %zmm5
	vfmadd132ps	%zmm2, %zmm0, %zmm4
	vmovaps	%zmm3, %zmm1
	cmpq	%rax, %rdx
	jne	.L214
	vmovups	%zmm10, (%rdi)
	vmovups	%zmm9, 64(%rdi)
	vmovups	%zmm8, 128(%rdi)
	vmovups	%zmm7, 192(%rdi)
	vmovups	%zmm6, 256(%rdi)
	vmovups	%zmm5, 320(%rdi)
	vmovups	%zmm4, 384(%rdi)
	vmovups	%zmm3, 448(%rdi)
	vzeroupper
.L212:
#APP
# 159 "axpb.cc" 1
	# axpb_simd_c<$8>: ax+c loop end
# 0 "" 2
#NO_APP
	xorl	%eax, %eax
	leave
	.cfi_remember_state
	.cfi_def_cfa 7, 8
	ret
.L216:
	.cfi_restore_state
	leaq	.LC31(%rip), %rcx
	movl	$149, %edx
	leaq	.LC1(%rip), %rsi
	leaq	.LC10(%rip), %rdi
	call	__assert_fail@PLT
.L217:
	leaq	.LC31(%rip), %rcx
	movl	$150, %edx
	leaq	.LC1(%rip), %rsi
	leaq	.LC4(%rip), %rdi
	call	__assert_fail@PLT
	.cfi_endproc
.LFE5737:
	.size	_Z11axpb_simd_cILi8EEl14axpb_options_tfPff, .-_Z11axpb_simd_cILi8EEl14axpb_options_tfPff
	.section	.rodata._Z24axpb_simd_parallel_m_mnmILi9EEl14axpb_options_tfPff.str1.8,"aMS",@progbits,1
	.align 8
.LC32:
	.string	"long int axpb_simd_parallel_m_mnm(axpb_options_t, float, float*, float) [with int c = 9]"
	.section	.text._Z24axpb_simd_parallel_m_mnmILi9EEl14axpb_options_tfPff,"axG",@progbits,_Z24axpb_simd_parallel_m_mnmILi9EEl14axpb_options_tfPff,comdat
	.p2align 4
	.weak	_Z24axpb_simd_parallel_m_mnmILi9EEl14axpb_options_tfPff
	.type	_Z24axpb_simd_parallel_m_mnmILi9EEl14axpb_options_tfPff, @function
_Z24axpb_simd_parallel_m_mnmILi9EEl14axpb_options_tfPff:
.LFB5742:
	.cfi_startproc
	endbr64
	pushq	%rax
	.cfi_def_cfa_offset 16
	popq	%rax
	.cfi_def_cfa_offset 8
	leaq	.LC32(%rip), %rcx
	movl	$287, %edx
	leaq	.LC1(%rip), %rsi
	leaq	.LC6(%rip), %rdi
	subq	$8, %rsp
	.cfi_def_cfa_offset 16
	call	__assert_fail@PLT
	.cfi_endproc
.LFE5742:
	.size	_Z24axpb_simd_parallel_m_mnmILi9EEl14axpb_options_tfPff, .-_Z24axpb_simd_parallel_m_mnmILi9EEl14axpb_options_tfPff
	.section	.rodata._Z15axpb_simd_m_mnmILi9EEl14axpb_options_tfPff.str1.8,"aMS",@progbits,1
	.align 8
.LC33:
	.string	"long int axpb_simd_m_mnm(axpb_options_t, float, float*, float) [with int c = 9]"
	.section	.text._Z15axpb_simd_m_mnmILi9EEl14axpb_options_tfPff,"axG",@progbits,_Z15axpb_simd_m_mnmILi9EEl14axpb_options_tfPff,comdat
	.p2align 4
	.weak	_Z15axpb_simd_m_mnmILi9EEl14axpb_options_tfPff
	.type	_Z15axpb_simd_m_mnmILi9EEl14axpb_options_tfPff, @function
_Z15axpb_simd_m_mnmILi9EEl14axpb_options_tfPff:
.LFB5741:
	.cfi_startproc
	endbr64
	pushq	%rbp
	.cfi_def_cfa_offset 16
	.cfi_offset 6, -16
	movabsq	$1024819115206086201, %rdx
	movq	%rsp, %rbp
	.cfi_def_cfa_register 6
	movq	56(%rbp), %r8
	movq	64(%rbp), %rsi
	movq	%r8, %rax
	imulq	%rdx
	andq	$-64, %rsp
	movq	%rdx, %rax
	movq	%r8, %rdx
	sarq	$3, %rax
	sarq	$63, %rdx
	subq	%rdx, %rax
	leaq	(%rax,%rax,8), %rax
	salq	$4, %rax
	cmpq	%rax, %r8
	jne	.L232
	cmpq	$1, 32(%rbp)
	jne	.L233
	movq	%rdi, %rcx
	testq	%r8, %r8
	leaq	15(%r8), %rdi
	cmovns	%r8, %rdi
	vmovaps	%xmm0, %xmm2
	vmovaps	%xmm1, %xmm0
	movq	%rcx, %rdx
	sarq	$4, %rdi
	xorl	%ecx, %ecx
	vbroadcastss	%xmm2, %zmm1
	vbroadcastss	%xmm0, %zmm0
	cmpq	$15, %r8
	jle	.L229
	.p2align 4,,10
	.p2align 3
.L227:
#APP
# 255 "axpb.cc" 1
	# axpb_simd_m_mnm<$9>: ax+c inner loop begin
# 0 "" 2
#NO_APP
	testq	%rsi, %rsi
	jle	.L224
	vmovups	(%rdx), %zmm10
	vmovups	64(%rdx), %zmm9
	vmovups	128(%rdx), %zmm8
	vmovups	192(%rdx), %zmm7
	vmovups	256(%rdx), %zmm6
	vmovups	320(%rdx), %zmm5
	vmovups	384(%rdx), %zmm4
	vmovups	448(%rdx), %zmm3
	vmovups	512(%rdx), %zmm2
	xorl	%eax, %eax
	.p2align 4,,10
	.p2align 3
.L225:
	incq	%rax
	vfmadd132ps	%zmm1, %zmm0, %zmm10
	vfmadd132ps	%zmm1, %zmm0, %zmm9
	vfmadd132ps	%zmm1, %zmm0, %zmm8
	vfmadd132ps	%zmm1, %zmm0, %zmm7
	vfmadd132ps	%zmm1, %zmm0, %zmm6
	vfmadd132ps	%zmm1, %zmm0, %zmm5
	vfmadd132ps	%zmm1, %zmm0, %zmm4
	vfmadd132ps	%zmm1, %zmm0, %zmm3
	vfmadd132ps	%zmm1, %zmm0, %zmm2
	cmpq	%rax, %rsi
	jne	.L225
	vmovups	%zmm10, (%rdx)
	vmovups	%zmm9, 64(%rdx)
	vmovups	%zmm8, 128(%rdx)
	vmovups	%zmm7, 192(%rdx)
	vmovups	%zmm6, 256(%rdx)
	vmovups	%zmm5, 320(%rdx)
	vmovups	%zmm4, 384(%rdx)
	vmovups	%zmm3, 448(%rdx)
	vmovups	%zmm2, 512(%rdx)
.L224:
#APP
# 261 "axpb.cc" 1
	# axpb_simd_m_mnm<$9>: ax+c inner loop end
# 0 "" 2
#NO_APP
	addq	$9, %rcx
	addq	$576, %rdx
	cmpq	%rdi, %rcx
	jl	.L227
.L229:
	xorl	%eax, %eax
	vzeroupper
	leave
	.cfi_remember_state
	.cfi_def_cfa 7, 8
	ret
.L232:
	.cfi_restore_state
	leaq	.LC33(%rip), %rcx
	movl	$251, %edx
	leaq	.LC1(%rip), %rsi
	leaq	.LC8(%rip), %rdi
	call	__assert_fail@PLT
.L233:
	leaq	.LC33(%rip), %rcx
	movl	$252, %edx
	leaq	.LC1(%rip), %rsi
	leaq	.LC4(%rip), %rdi
	call	__assert_fail@PLT
	.cfi_endproc
.LFE5741:
	.size	_Z15axpb_simd_m_mnmILi9EEl14axpb_options_tfPff, .-_Z15axpb_simd_m_mnmILi9EEl14axpb_options_tfPff
	.section	.rodata._Z11axpb_simd_cILi9EEl14axpb_options_tfPff.str1.8,"aMS",@progbits,1
	.align 8
.LC34:
	.string	"long int axpb_simd_c(axpb_options_t, float, float*, float) [with int c = 9]"
	.section	.text._Z11axpb_simd_cILi9EEl14axpb_options_tfPff,"axG",@progbits,_Z11axpb_simd_cILi9EEl14axpb_options_tfPff,comdat
	.p2align 4
	.weak	_Z11axpb_simd_cILi9EEl14axpb_options_tfPff
	.type	_Z11axpb_simd_cILi9EEl14axpb_options_tfPff, @function
_Z11axpb_simd_cILi9EEl14axpb_options_tfPff:
.LFB5740:
	.cfi_startproc
	endbr64
	pushq	%rbp
	.cfi_def_cfa_offset 16
	.cfi_offset 6, -16
	movq	%rsp, %rbp
	.cfi_def_cfa_register 6
	andq	$-64, %rsp
	cmpq	$144, 56(%rbp)
	jne	.L241
	cmpq	$1, 32(%rbp)
	jne	.L242
	movq	64(%rbp), %rdx
#APP
# 153 "axpb.cc" 1
	# axpb_simd_c<$9>: ax+c loop begin
# 0 "" 2
#NO_APP
	testq	%rdx, %rdx
	jle	.L237
	vbroadcastss	%xmm0, %zmm2
	vmovups	(%rdi), %zmm11
	vmovups	64(%rdi), %zmm10
	vmovups	128(%rdi), %zmm9
	vmovups	192(%rdi), %zmm8
	vmovups	256(%rdi), %zmm7
	vmovups	320(%rdi), %zmm6
	vmovups	384(%rdi), %zmm5
	vmovups	448(%rdi), %zmm4
	vmovups	512(%rdi), %zmm3
	vbroadcastss	%xmm1, %zmm0
	xorl	%eax, %eax
	jmp	.L238
	.p2align 4,,10
	.p2align 3
.L239:
	vmovaps	%zmm1, %zmm3
.L238:
	vfmadd132ps	%zmm2, %zmm0, %zmm3
	incq	%rax
	vfmadd132ps	%zmm2, %zmm0, %zmm11
	vfmadd132ps	%zmm2, %zmm0, %zmm10
	vfmadd132ps	%zmm2, %zmm0, %zmm9
	vfmadd132ps	%zmm2, %zmm0, %zmm8
	vfmadd132ps	%zmm2, %zmm0, %zmm7
	vfmadd132ps	%zmm2, %zmm0, %zmm6
	vfmadd132ps	%zmm2, %zmm0, %zmm5
	vfmadd132ps	%zmm2, %zmm0, %zmm4
	vmovaps	%zmm3, %zmm1
	cmpq	%rax, %rdx
	jne	.L239
	vmovups	%zmm11, (%rdi)
	vmovups	%zmm10, 64(%rdi)
	vmovups	%zmm9, 128(%rdi)
	vmovups	%zmm8, 192(%rdi)
	vmovups	%zmm7, 256(%rdi)
	vmovups	%zmm6, 320(%rdi)
	vmovups	%zmm5, 384(%rdi)
	vmovups	%zmm4, 448(%rdi)
	vmovups	%zmm3, 512(%rdi)
	vzeroupper
.L237:
#APP
# 159 "axpb.cc" 1
	# axpb_simd_c<$9>: ax+c loop end
# 0 "" 2
#NO_APP
	xorl	%eax, %eax
	leave
	.cfi_remember_state
	.cfi_def_cfa 7, 8
	ret
.L241:
	.cfi_restore_state
	leaq	.LC34(%rip), %rcx
	movl	$149, %edx
	leaq	.LC1(%rip), %rsi
	leaq	.LC10(%rip), %rdi
	call	__assert_fail@PLT
.L242:
	leaq	.LC34(%rip), %rcx
	movl	$150, %edx
	leaq	.LC1(%rip), %rsi
	leaq	.LC4(%rip), %rdi
	call	__assert_fail@PLT
	.cfi_endproc
.LFE5740:
	.size	_Z11axpb_simd_cILi9EEl14axpb_options_tfPff, .-_Z11axpb_simd_cILi9EEl14axpb_options_tfPff
	.section	.rodata._Z24axpb_simd_parallel_m_mnmILi10EEl14axpb_options_tfPff.str1.8,"aMS",@progbits,1
	.align 8
.LC35:
	.string	"long int axpb_simd_parallel_m_mnm(axpb_options_t, float, float*, float) [with int c = 10]"
	.section	.text._Z24axpb_simd_parallel_m_mnmILi10EEl14axpb_options_tfPff,"axG",@progbits,_Z24axpb_simd_parallel_m_mnmILi10EEl14axpb_options_tfPff,comdat
	.p2align 4
	.weak	_Z24axpb_simd_parallel_m_mnmILi10EEl14axpb_options_tfPff
	.type	_Z24axpb_simd_parallel_m_mnmILi10EEl14axpb_options_tfPff, @function
_Z24axpb_simd_parallel_m_mnmILi10EEl14axpb_options_tfPff:
.LFB5745:
	.cfi_startproc
	endbr64
	pushq	%rax
	.cfi_def_cfa_offset 16
	popq	%rax
	.cfi_def_cfa_offset 8
	leaq	.LC35(%rip), %rcx
	movl	$287, %edx
	leaq	.LC1(%rip), %rsi
	leaq	.LC6(%rip), %rdi
	subq	$8, %rsp
	.cfi_def_cfa_offset 16
	call	__assert_fail@PLT
	.cfi_endproc
.LFE5745:
	.size	_Z24axpb_simd_parallel_m_mnmILi10EEl14axpb_options_tfPff, .-_Z24axpb_simd_parallel_m_mnmILi10EEl14axpb_options_tfPff
	.section	.rodata._Z15axpb_simd_m_mnmILi10EEl14axpb_options_tfPff.str1.8,"aMS",@progbits,1
	.align 8
.LC36:
	.string	"long int axpb_simd_m_mnm(axpb_options_t, float, float*, float) [with int c = 10]"
	.section	.text._Z15axpb_simd_m_mnmILi10EEl14axpb_options_tfPff,"axG",@progbits,_Z15axpb_simd_m_mnmILi10EEl14axpb_options_tfPff,comdat
	.p2align 4
	.weak	_Z15axpb_simd_m_mnmILi10EEl14axpb_options_tfPff
	.type	_Z15axpb_simd_m_mnmILi10EEl14axpb_options_tfPff, @function
_Z15axpb_simd_m_mnmILi10EEl14axpb_options_tfPff:
.LFB5744:
	.cfi_startproc
	endbr64
	pushq	%rbp
	.cfi_def_cfa_offset 16
	.cfi_offset 6, -16
	movabsq	$7378697629483820647, %rdx
	movq	%rsp, %rbp
	.cfi_def_cfa_register 6
	movq	56(%rbp), %r8
	movq	64(%rbp), %rsi
	movq	%r8, %rax
	imulq	%rdx
	andq	$-64, %rsp
	movq	%rdx, %rax
	movq	%r8, %rdx
	sarq	$6, %rax
	sarq	$63, %rdx
	subq	%rdx, %rax
	leaq	(%rax,%rax,4), %rax
	salq	$5, %rax
	cmpq	%rax, %r8
	jne	.L257
	cmpq	$1, 32(%rbp)
	jne	.L258
	movq	%rdi, %rcx
	testq	%r8, %r8
	leaq	15(%r8), %rdi
	cmovns	%r8, %rdi
	vmovaps	%xmm0, %xmm2
	vmovaps	%xmm1, %xmm0
	movq	%rcx, %rdx
	sarq	$4, %rdi
	xorl	%ecx, %ecx
	vbroadcastss	%xmm2, %zmm1
	vbroadcastss	%xmm0, %zmm0
	cmpq	$15, %r8
	jle	.L254
	.p2align 4,,10
	.p2align 3
.L252:
#APP
# 255 "axpb.cc" 1
	# axpb_simd_m_mnm<$10>: ax+c inner loop begin
# 0 "" 2
#NO_APP
	testq	%rsi, %rsi
	jle	.L249
	vmovups	(%rdx), %zmm11
	vmovups	64(%rdx), %zmm10
	vmovups	128(%rdx), %zmm9
	vmovups	192(%rdx), %zmm8
	vmovups	256(%rdx), %zmm7
	vmovups	320(%rdx), %zmm6
	vmovups	384(%rdx), %zmm5
	vmovups	448(%rdx), %zmm4
	vmovups	512(%rdx), %zmm3
	vmovups	576(%rdx), %zmm2
	xorl	%eax, %eax
	.p2align 4,,10
	.p2align 3
.L250:
	incq	%rax
	vfmadd132ps	%zmm1, %zmm0, %zmm11
	vfmadd132ps	%zmm1, %zmm0, %zmm10
	vfmadd132ps	%zmm1, %zmm0, %zmm9
	vfmadd132ps	%zmm1, %zmm0, %zmm8
	vfmadd132ps	%zmm1, %zmm0, %zmm7
	vfmadd132ps	%zmm1, %zmm0, %zmm6
	vfmadd132ps	%zmm1, %zmm0, %zmm5
	vfmadd132ps	%zmm1, %zmm0, %zmm4
	vfmadd132ps	%zmm1, %zmm0, %zmm3
	vfmadd132ps	%zmm1, %zmm0, %zmm2
	cmpq	%rax, %rsi
	jne	.L250
	vmovups	%zmm11, (%rdx)
	vmovups	%zmm10, 64(%rdx)
	vmovups	%zmm9, 128(%rdx)
	vmovups	%zmm8, 192(%rdx)
	vmovups	%zmm7, 256(%rdx)
	vmovups	%zmm6, 320(%rdx)
	vmovups	%zmm5, 384(%rdx)
	vmovups	%zmm4, 448(%rdx)
	vmovups	%zmm3, 512(%rdx)
	vmovups	%zmm2, 576(%rdx)
.L249:
#APP
# 261 "axpb.cc" 1
	# axpb_simd_m_mnm<$10>: ax+c inner loop end
# 0 "" 2
#NO_APP
	addq	$10, %rcx
	addq	$640, %rdx
	cmpq	%rdi, %rcx
	jl	.L252
.L254:
	xorl	%eax, %eax
	vzeroupper
	leave
	.cfi_remember_state
	.cfi_def_cfa 7, 8
	ret
.L257:
	.cfi_restore_state
	leaq	.LC36(%rip), %rcx
	movl	$251, %edx
	leaq	.LC1(%rip), %rsi
	leaq	.LC8(%rip), %rdi
	call	__assert_fail@PLT
.L258:
	leaq	.LC36(%rip), %rcx
	movl	$252, %edx
	leaq	.LC1(%rip), %rsi
	leaq	.LC4(%rip), %rdi
	call	__assert_fail@PLT
	.cfi_endproc
.LFE5744:
	.size	_Z15axpb_simd_m_mnmILi10EEl14axpb_options_tfPff, .-_Z15axpb_simd_m_mnmILi10EEl14axpb_options_tfPff
	.section	.rodata._Z11axpb_simd_cILi10EEl14axpb_options_tfPff.str1.8,"aMS",@progbits,1
	.align 8
.LC37:
	.string	"long int axpb_simd_c(axpb_options_t, float, float*, float) [with int c = 10]"
	.section	.text._Z11axpb_simd_cILi10EEl14axpb_options_tfPff,"axG",@progbits,_Z11axpb_simd_cILi10EEl14axpb_options_tfPff,comdat
	.p2align 4
	.weak	_Z11axpb_simd_cILi10EEl14axpb_options_tfPff
	.type	_Z11axpb_simd_cILi10EEl14axpb_options_tfPff, @function
_Z11axpb_simd_cILi10EEl14axpb_options_tfPff:
.LFB5743:
	.cfi_startproc
	endbr64
	pushq	%rbp
	.cfi_def_cfa_offset 16
	.cfi_offset 6, -16
	movq	%rsp, %rbp
	.cfi_def_cfa_register 6
	andq	$-64, %rsp
	cmpq	$160, 56(%rbp)
	jne	.L266
	cmpq	$1, 32(%rbp)
	jne	.L267
	movq	64(%rbp), %rdx
#APP
# 153 "axpb.cc" 1
	# axpb_simd_c<$10>: ax+c loop begin
# 0 "" 2
#NO_APP
	testq	%rdx, %rdx
	jle	.L262
	vbroadcastss	%xmm0, %zmm2
	vmovups	(%rdi), %zmm12
	vmovups	64(%rdi), %zmm11
	vmovups	128(%rdi), %zmm10
	vmovups	192(%rdi), %zmm9
	vmovups	256(%rdi), %zmm8
	vmovups	320(%rdi), %zmm7
	vmovups	384(%rdi), %zmm6
	vmovups	448(%rdi), %zmm5
	vmovups	512(%rdi), %zmm4
	vmovups	576(%rdi), %zmm3
	vbroadcastss	%xmm1, %zmm0
	xorl	%eax, %eax
	jmp	.L263
	.p2align 4,,10
	.p2align 3
.L264:
	vmovaps	%zmm1, %zmm3
.L263:
	vfmadd132ps	%zmm2, %zmm0, %zmm3
	incq	%rax
	vfmadd132ps	%zmm2, %zmm0, %zmm12
	vfmadd132ps	%zmm2, %zmm0, %zmm11
	vfmadd132ps	%zmm2, %zmm0, %zmm10
	vfmadd132ps	%zmm2, %zmm0, %zmm9
	vfmadd132ps	%zmm2, %zmm0, %zmm8
	vfmadd132ps	%zmm2, %zmm0, %zmm7
	vfmadd132ps	%zmm2, %zmm0, %zmm6
	vfmadd132ps	%zmm2, %zmm0, %zmm5
	vfmadd132ps	%zmm2, %zmm0, %zmm4
	vmovaps	%zmm3, %zmm1
	cmpq	%rax, %rdx
	jne	.L264
	vmovups	%zmm12, (%rdi)
	vmovups	%zmm11, 64(%rdi)
	vmovups	%zmm10, 128(%rdi)
	vmovups	%zmm9, 192(%rdi)
	vmovups	%zmm8, 256(%rdi)
	vmovups	%zmm7, 320(%rdi)
	vmovups	%zmm6, 384(%rdi)
	vmovups	%zmm5, 448(%rdi)
	vmovups	%zmm4, 512(%rdi)
	vmovups	%zmm3, 576(%rdi)
	vzeroupper
.L262:
#APP
# 159 "axpb.cc" 1
	# axpb_simd_c<$10>: ax+c loop end
# 0 "" 2
#NO_APP
	xorl	%eax, %eax
	leave
	.cfi_remember_state
	.cfi_def_cfa 7, 8
	ret
.L266:
	.cfi_restore_state
	leaq	.LC37(%rip), %rcx
	movl	$149, %edx
	leaq	.LC1(%rip), %rsi
	leaq	.LC10(%rip), %rdi
	call	__assert_fail@PLT
.L267:
	leaq	.LC37(%rip), %rcx
	movl	$150, %edx
	leaq	.LC1(%rip), %rsi
	leaq	.LC4(%rip), %rdi
	call	__assert_fail@PLT
	.cfi_endproc
.LFE5743:
	.size	_Z11axpb_simd_cILi10EEl14axpb_options_tfPff, .-_Z11axpb_simd_cILi10EEl14axpb_options_tfPff
	.section	.rodata._Z24axpb_simd_parallel_m_mnmILi11EEl14axpb_options_tfPff.str1.8,"aMS",@progbits,1
	.align 8
.LC38:
	.string	"long int axpb_simd_parallel_m_mnm(axpb_options_t, float, float*, float) [with int c = 11]"
	.section	.text._Z24axpb_simd_parallel_m_mnmILi11EEl14axpb_options_tfPff,"axG",@progbits,_Z24axpb_simd_parallel_m_mnmILi11EEl14axpb_options_tfPff,comdat
	.p2align 4
	.weak	_Z24axpb_simd_parallel_m_mnmILi11EEl14axpb_options_tfPff
	.type	_Z24axpb_simd_parallel_m_mnmILi11EEl14axpb_options_tfPff, @function
_Z24axpb_simd_parallel_m_mnmILi11EEl14axpb_options_tfPff:
.LFB5748:
	.cfi_startproc
	endbr64
	pushq	%rax
	.cfi_def_cfa_offset 16
	popq	%rax
	.cfi_def_cfa_offset 8
	leaq	.LC38(%rip), %rcx
	movl	$287, %edx
	leaq	.LC1(%rip), %rsi
	leaq	.LC6(%rip), %rdi
	subq	$8, %rsp
	.cfi_def_cfa_offset 16
	call	__assert_fail@PLT
	.cfi_endproc
.LFE5748:
	.size	_Z24axpb_simd_parallel_m_mnmILi11EEl14axpb_options_tfPff, .-_Z24axpb_simd_parallel_m_mnmILi11EEl14axpb_options_tfPff
	.section	.rodata._Z15axpb_simd_m_mnmILi11EEl14axpb_options_tfPff.str1.8,"aMS",@progbits,1
	.align 8
.LC39:
	.string	"long int axpb_simd_m_mnm(axpb_options_t, float, float*, float) [with int c = 11]"
	.section	.text._Z15axpb_simd_m_mnmILi11EEl14axpb_options_tfPff,"axG",@progbits,_Z15axpb_simd_m_mnmILi11EEl14axpb_options_tfPff,comdat
	.p2align 4
	.weak	_Z15axpb_simd_m_mnmILi11EEl14axpb_options_tfPff
	.type	_Z15axpb_simd_m_mnmILi11EEl14axpb_options_tfPff, @function
_Z15axpb_simd_m_mnmILi11EEl14axpb_options_tfPff:
.LFB5747:
	.cfi_startproc
	endbr64
	pushq	%rbp
	.cfi_def_cfa_offset 16
	.cfi_offset 6, -16
	movabsq	$3353953467947191203, %rdx
	movq	%rsp, %rbp
	.cfi_def_cfa_register 6
	movq	56(%rbp), %r8
	movq	64(%rbp), %rsi
	movq	%r8, %rax
	imulq	%rdx
	andq	$-64, %rsp
	movq	%rdx, %rax
	movq	%r8, %rdx
	sarq	$5, %rax
	sarq	$63, %rdx
	subq	%rdx, %rax
	imulq	$176, %rax, %rax
	cmpq	%rax, %r8
	jne	.L282
	cmpq	$1, 32(%rbp)
	jne	.L283
	movq	%rdi, %rcx
	testq	%r8, %r8
	leaq	15(%r8), %rdi
	cmovns	%r8, %rdi
	vmovaps	%xmm0, %xmm2
	vmovaps	%xmm1, %xmm0
	movq	%rcx, %rdx
	sarq	$4, %rdi
	xorl	%ecx, %ecx
	vbroadcastss	%xmm2, %zmm1
	vbroadcastss	%xmm0, %zmm0
	cmpq	$15, %r8
	jle	.L279
	.p2align 4,,10
	.p2align 3
.L277:
#APP
# 255 "axpb.cc" 1
	# axpb_simd_m_mnm<$11>: ax+c inner loop begin
# 0 "" 2
#NO_APP
	testq	%rsi, %rsi
	jle	.L274
	vmovups	(%rdx), %zmm12
	vmovups	64(%rdx), %zmm11
	vmovups	128(%rdx), %zmm10
	vmovups	192(%rdx), %zmm9
	vmovups	256(%rdx), %zmm8
	vmovups	320(%rdx), %zmm7
	vmovups	384(%rdx), %zmm6
	vmovups	448(%rdx), %zmm5
	vmovups	512(%rdx), %zmm4
	vmovups	576(%rdx), %zmm3
	vmovups	640(%rdx), %zmm2
	xorl	%eax, %eax
	.p2align 4,,10
	.p2align 3
.L275:
	incq	%rax
	vfmadd132ps	%zmm1, %zmm0, %zmm12
	vfmadd132ps	%zmm1, %zmm0, %zmm11
	vfmadd132ps	%zmm1, %zmm0, %zmm10
	vfmadd132ps	%zmm1, %zmm0, %zmm9
	vfmadd132ps	%zmm1, %zmm0, %zmm8
	vfmadd132ps	%zmm1, %zmm0, %zmm7
	vfmadd132ps	%zmm1, %zmm0, %zmm6
	vfmadd132ps	%zmm1, %zmm0, %zmm5
	vfmadd132ps	%zmm1, %zmm0, %zmm4
	vfmadd132ps	%zmm1, %zmm0, %zmm3
	vfmadd132ps	%zmm1, %zmm0, %zmm2
	cmpq	%rax, %rsi
	jne	.L275
	vmovups	%zmm12, (%rdx)
	vmovups	%zmm11, 64(%rdx)
	vmovups	%zmm10, 128(%rdx)
	vmovups	%zmm9, 192(%rdx)
	vmovups	%zmm8, 256(%rdx)
	vmovups	%zmm7, 320(%rdx)
	vmovups	%zmm6, 384(%rdx)
	vmovups	%zmm5, 448(%rdx)
	vmovups	%zmm4, 512(%rdx)
	vmovups	%zmm3, 576(%rdx)
	vmovups	%zmm2, 640(%rdx)
.L274:
#APP
# 261 "axpb.cc" 1
	# axpb_simd_m_mnm<$11>: ax+c inner loop end
# 0 "" 2
#NO_APP
	addq	$11, %rcx
	addq	$704, %rdx
	cmpq	%rdi, %rcx
	jl	.L277
.L279:
	xorl	%eax, %eax
	vzeroupper
	leave
	.cfi_remember_state
	.cfi_def_cfa 7, 8
	ret
.L282:
	.cfi_restore_state
	leaq	.LC39(%rip), %rcx
	movl	$251, %edx
	leaq	.LC1(%rip), %rsi
	leaq	.LC8(%rip), %rdi
	call	__assert_fail@PLT
.L283:
	leaq	.LC39(%rip), %rcx
	movl	$252, %edx
	leaq	.LC1(%rip), %rsi
	leaq	.LC4(%rip), %rdi
	call	__assert_fail@PLT
	.cfi_endproc
.LFE5747:
	.size	_Z15axpb_simd_m_mnmILi11EEl14axpb_options_tfPff, .-_Z15axpb_simd_m_mnmILi11EEl14axpb_options_tfPff
	.section	.rodata._Z11axpb_simd_cILi11EEl14axpb_options_tfPff.str1.8,"aMS",@progbits,1
	.align 8
.LC40:
	.string	"long int axpb_simd_c(axpb_options_t, float, float*, float) [with int c = 11]"
	.section	.text._Z11axpb_simd_cILi11EEl14axpb_options_tfPff,"axG",@progbits,_Z11axpb_simd_cILi11EEl14axpb_options_tfPff,comdat
	.p2align 4
	.weak	_Z11axpb_simd_cILi11EEl14axpb_options_tfPff
	.type	_Z11axpb_simd_cILi11EEl14axpb_options_tfPff, @function
_Z11axpb_simd_cILi11EEl14axpb_options_tfPff:
.LFB5746:
	.cfi_startproc
	endbr64
	pushq	%rbp
	.cfi_def_cfa_offset 16
	.cfi_offset 6, -16
	movq	%rsp, %rbp
	.cfi_def_cfa_register 6
	andq	$-64, %rsp
	cmpq	$176, 56(%rbp)
	jne	.L291
	cmpq	$1, 32(%rbp)
	jne	.L292
	movq	64(%rbp), %rdx
#APP
# 153 "axpb.cc" 1
	# axpb_simd_c<$11>: ax+c loop begin
# 0 "" 2
#NO_APP
	testq	%rdx, %rdx
	jle	.L287
	vbroadcastss	%xmm0, %zmm2
	vmovups	(%rdi), %zmm13
	vmovups	64(%rdi), %zmm12
	vmovups	128(%rdi), %zmm11
	vmovups	192(%rdi), %zmm10
	vmovups	256(%rdi), %zmm9
	vmovups	320(%rdi), %zmm8
	vmovups	384(%rdi), %zmm7
	vmovups	448(%rdi), %zmm6
	vmovups	512(%rdi), %zmm5
	vmovups	576(%rdi), %zmm4
	vmovups	640(%rdi), %zmm3
	vbroadcastss	%xmm1, %zmm0
	xorl	%eax, %eax
	jmp	.L288
	.p2align 4,,10
	.p2align 3
.L289:
	vmovaps	%zmm1, %zmm3
.L288:
	vfmadd132ps	%zmm2, %zmm0, %zmm3
	incq	%rax
	vfmadd132ps	%zmm2, %zmm0, %zmm13
	vfmadd132ps	%zmm2, %zmm0, %zmm12
	vfmadd132ps	%zmm2, %zmm0, %zmm11
	vfmadd132ps	%zmm2, %zmm0, %zmm10
	vfmadd132ps	%zmm2, %zmm0, %zmm9
	vfmadd132ps	%zmm2, %zmm0, %zmm8
	vfmadd132ps	%zmm2, %zmm0, %zmm7
	vfmadd132ps	%zmm2, %zmm0, %zmm6
	vfmadd132ps	%zmm2, %zmm0, %zmm5
	vfmadd132ps	%zmm2, %zmm0, %zmm4
	vmovaps	%zmm3, %zmm1
	cmpq	%rax, %rdx
	jne	.L289
	vmovups	%zmm13, (%rdi)
	vmovups	%zmm12, 64(%rdi)
	vmovups	%zmm11, 128(%rdi)
	vmovups	%zmm10, 192(%rdi)
	vmovups	%zmm9, 256(%rdi)
	vmovups	%zmm8, 320(%rdi)
	vmovups	%zmm7, 384(%rdi)
	vmovups	%zmm6, 448(%rdi)
	vmovups	%zmm5, 512(%rdi)
	vmovups	%zmm4, 576(%rdi)
	vmovups	%zmm3, 640(%rdi)
	vzeroupper
.L287:
#APP
# 159 "axpb.cc" 1
	# axpb_simd_c<$11>: ax+c loop end
# 0 "" 2
#NO_APP
	xorl	%eax, %eax
	leave
	.cfi_remember_state
	.cfi_def_cfa 7, 8
	ret
.L291:
	.cfi_restore_state
	leaq	.LC40(%rip), %rcx
	movl	$149, %edx
	leaq	.LC1(%rip), %rsi
	leaq	.LC10(%rip), %rdi
	call	__assert_fail@PLT
.L292:
	leaq	.LC40(%rip), %rcx
	movl	$150, %edx
	leaq	.LC1(%rip), %rsi
	leaq	.LC4(%rip), %rdi
	call	__assert_fail@PLT
	.cfi_endproc
.LFE5746:
	.size	_Z11axpb_simd_cILi11EEl14axpb_options_tfPff, .-_Z11axpb_simd_cILi11EEl14axpb_options_tfPff
	.section	.rodata._Z24axpb_simd_parallel_m_mnmILi12EEl14axpb_options_tfPff.str1.8,"aMS",@progbits,1
	.align 8
.LC41:
	.string	"long int axpb_simd_parallel_m_mnm(axpb_options_t, float, float*, float) [with int c = 12]"
	.section	.text._Z24axpb_simd_parallel_m_mnmILi12EEl14axpb_options_tfPff,"axG",@progbits,_Z24axpb_simd_parallel_m_mnmILi12EEl14axpb_options_tfPff,comdat
	.p2align 4
	.weak	_Z24axpb_simd_parallel_m_mnmILi12EEl14axpb_options_tfPff
	.type	_Z24axpb_simd_parallel_m_mnmILi12EEl14axpb_options_tfPff, @function
_Z24axpb_simd_parallel_m_mnmILi12EEl14axpb_options_tfPff:
.LFB5751:
	.cfi_startproc
	endbr64
	pushq	%rax
	.cfi_def_cfa_offset 16
	popq	%rax
	.cfi_def_cfa_offset 8
	leaq	.LC41(%rip), %rcx
	movl	$287, %edx
	leaq	.LC1(%rip), %rsi
	leaq	.LC6(%rip), %rdi
	subq	$8, %rsp
	.cfi_def_cfa_offset 16
	call	__assert_fail@PLT
	.cfi_endproc
.LFE5751:
	.size	_Z24axpb_simd_parallel_m_mnmILi12EEl14axpb_options_tfPff, .-_Z24axpb_simd_parallel_m_mnmILi12EEl14axpb_options_tfPff
	.section	.rodata._Z15axpb_simd_m_mnmILi12EEl14axpb_options_tfPff.str1.8,"aMS",@progbits,1
	.align 8
.LC42:
	.string	"long int axpb_simd_m_mnm(axpb_options_t, float, float*, float) [with int c = 12]"
	.section	.text._Z15axpb_simd_m_mnmILi12EEl14axpb_options_tfPff,"axG",@progbits,_Z15axpb_simd_m_mnmILi12EEl14axpb_options_tfPff,comdat
	.p2align 4
	.weak	_Z15axpb_simd_m_mnmILi12EEl14axpb_options_tfPff
	.type	_Z15axpb_simd_m_mnmILi12EEl14axpb_options_tfPff, @function
_Z15axpb_simd_m_mnmILi12EEl14axpb_options_tfPff:
.LFB5750:
	.cfi_startproc
	endbr64
	pushq	%rbp
	.cfi_def_cfa_offset 16
	.cfi_offset 6, -16
	movabsq	$3074457345618258603, %rdx
	movq	%rsp, %rbp
	.cfi_def_cfa_register 6
	movq	56(%rbp), %r8
	movq	64(%rbp), %rsi
	movq	%r8, %rax
	imulq	%rdx
	andq	$-64, %rsp
	movq	%rdx, %rax
	movq	%r8, %rdx
	sarq	$5, %rax
	sarq	$63, %rdx
	subq	%rdx, %rax
	leaq	(%rax,%rax,2), %rax
	salq	$6, %rax
	cmpq	%rax, %r8
	jne	.L307
	cmpq	$1, 32(%rbp)
	jne	.L308
	movq	%rdi, %rcx
	testq	%r8, %r8
	leaq	15(%r8), %rdi
	cmovns	%r8, %rdi
	vmovaps	%xmm0, %xmm2
	vmovaps	%xmm1, %xmm0
	movq	%rcx, %rdx
	sarq	$4, %rdi
	xorl	%ecx, %ecx
	vbroadcastss	%xmm2, %zmm1
	vbroadcastss	%xmm0, %zmm0
	cmpq	$15, %r8
	jle	.L304
.L302:
#APP
# 255 "axpb.cc" 1
	# axpb_simd_m_mnm<$12>: ax+c inner loop begin
# 0 "" 2
#NO_APP
	testq	%rsi, %rsi
	jle	.L299
	vmovups	(%rdx), %zmm13
	vmovups	64(%rdx), %zmm12
	vmovups	128(%rdx), %zmm11
	vmovups	192(%rdx), %zmm10
	vmovups	256(%rdx), %zmm9
	vmovups	320(%rdx), %zmm8
	vmovups	384(%rdx), %zmm7
	vmovups	448(%rdx), %zmm6
	vmovups	512(%rdx), %zmm5
	vmovups	576(%rdx), %zmm4
	vmovups	640(%rdx), %zmm3
	vmovups	704(%rdx), %zmm2
	xorl	%eax, %eax
	.p2align 4,,10
	.p2align 3
.L300:
	incq	%rax
	vfmadd132ps	%zmm1, %zmm0, %zmm13
	vfmadd132ps	%zmm1, %zmm0, %zmm12
	vfmadd132ps	%zmm1, %zmm0, %zmm11
	vfmadd132ps	%zmm1, %zmm0, %zmm10
	vfmadd132ps	%zmm1, %zmm0, %zmm9
	vfmadd132ps	%zmm1, %zmm0, %zmm8
	vfmadd132ps	%zmm1, %zmm0, %zmm7
	vfmadd132ps	%zmm1, %zmm0, %zmm6
	vfmadd132ps	%zmm1, %zmm0, %zmm5
	vfmadd132ps	%zmm1, %zmm0, %zmm4
	vfmadd132ps	%zmm1, %zmm0, %zmm3
	vfmadd132ps	%zmm1, %zmm0, %zmm2
	cmpq	%rax, %rsi
	jne	.L300
	vmovups	%zmm13, (%rdx)
	vmovups	%zmm12, 64(%rdx)
	vmovups	%zmm11, 128(%rdx)
	vmovups	%zmm10, 192(%rdx)
	vmovups	%zmm9, 256(%rdx)
	vmovups	%zmm8, 320(%rdx)
	vmovups	%zmm7, 384(%rdx)
	vmovups	%zmm6, 448(%rdx)
	vmovups	%zmm5, 512(%rdx)
	vmovups	%zmm4, 576(%rdx)
	vmovups	%zmm3, 640(%rdx)
	vmovups	%zmm2, 704(%rdx)
.L299:
#APP
# 261 "axpb.cc" 1
	# axpb_simd_m_mnm<$12>: ax+c inner loop end
# 0 "" 2
#NO_APP
	addq	$12, %rcx
	addq	$768, %rdx
	cmpq	%rdi, %rcx
	jl	.L302
.L304:
	xorl	%eax, %eax
	vzeroupper
	leave
	.cfi_remember_state
	.cfi_def_cfa 7, 8
	ret
.L307:
	.cfi_restore_state
	leaq	.LC42(%rip), %rcx
	movl	$251, %edx
	leaq	.LC1(%rip), %rsi
	leaq	.LC8(%rip), %rdi
	call	__assert_fail@PLT
.L308:
	leaq	.LC42(%rip), %rcx
	movl	$252, %edx
	leaq	.LC1(%rip), %rsi
	leaq	.LC4(%rip), %rdi
	call	__assert_fail@PLT
	.cfi_endproc
.LFE5750:
	.size	_Z15axpb_simd_m_mnmILi12EEl14axpb_options_tfPff, .-_Z15axpb_simd_m_mnmILi12EEl14axpb_options_tfPff
	.section	.rodata._Z11axpb_simd_cILi12EEl14axpb_options_tfPff.str1.8,"aMS",@progbits,1
	.align 8
.LC43:
	.string	"long int axpb_simd_c(axpb_options_t, float, float*, float) [with int c = 12]"
	.section	.text._Z11axpb_simd_cILi12EEl14axpb_options_tfPff,"axG",@progbits,_Z11axpb_simd_cILi12EEl14axpb_options_tfPff,comdat
	.p2align 4
	.weak	_Z11axpb_simd_cILi12EEl14axpb_options_tfPff
	.type	_Z11axpb_simd_cILi12EEl14axpb_options_tfPff, @function
_Z11axpb_simd_cILi12EEl14axpb_options_tfPff:
.LFB5749:
	.cfi_startproc
	endbr64
	pushq	%rbp
	.cfi_def_cfa_offset 16
	.cfi_offset 6, -16
	movq	%rsp, %rbp
	.cfi_def_cfa_register 6
	andq	$-64, %rsp
	cmpq	$192, 56(%rbp)
	jne	.L316
	cmpq	$1, 32(%rbp)
	jne	.L317
	movq	64(%rbp), %rdx
#APP
# 153 "axpb.cc" 1
	# axpb_simd_c<$12>: ax+c loop begin
# 0 "" 2
#NO_APP
	testq	%rdx, %rdx
	jle	.L312
	vbroadcastss	%xmm0, %zmm2
	vmovups	(%rdi), %zmm14
	vmovups	64(%rdi), %zmm13
	vmovups	128(%rdi), %zmm12
	vmovups	192(%rdi), %zmm11
	vmovups	256(%rdi), %zmm10
	vmovups	320(%rdi), %zmm9
	vmovups	384(%rdi), %zmm8
	vmovups	448(%rdi), %zmm7
	vmovups	512(%rdi), %zmm6
	vmovups	576(%rdi), %zmm5
	vmovups	640(%rdi), %zmm4
	vmovups	704(%rdi), %zmm3
	vbroadcastss	%xmm1, %zmm0
	xorl	%eax, %eax
	jmp	.L313
	.p2align 4,,10
	.p2align 3
.L314:
	vmovaps	%zmm1, %zmm3
.L313:
	vfmadd132ps	%zmm2, %zmm0, %zmm3
	incq	%rax
	vfmadd132ps	%zmm2, %zmm0, %zmm14
	vfmadd132ps	%zmm2, %zmm0, %zmm13
	vfmadd132ps	%zmm2, %zmm0, %zmm12
	vfmadd132ps	%zmm2, %zmm0, %zmm11
	vfmadd132ps	%zmm2, %zmm0, %zmm10
	vfmadd132ps	%zmm2, %zmm0, %zmm9
	vfmadd132ps	%zmm2, %zmm0, %zmm8
	vfmadd132ps	%zmm2, %zmm0, %zmm7
	vfmadd132ps	%zmm2, %zmm0, %zmm6
	vfmadd132ps	%zmm2, %zmm0, %zmm5
	vfmadd132ps	%zmm2, %zmm0, %zmm4
	vmovaps	%zmm3, %zmm1
	cmpq	%rax, %rdx
	jne	.L314
	vmovups	%zmm14, (%rdi)
	vmovups	%zmm13, 64(%rdi)
	vmovups	%zmm12, 128(%rdi)
	vmovups	%zmm11, 192(%rdi)
	vmovups	%zmm10, 256(%rdi)
	vmovups	%zmm9, 320(%rdi)
	vmovups	%zmm8, 384(%rdi)
	vmovups	%zmm7, 448(%rdi)
	vmovups	%zmm6, 512(%rdi)
	vmovups	%zmm5, 576(%rdi)
	vmovups	%zmm4, 640(%rdi)
	vmovups	%zmm3, 704(%rdi)
	vzeroupper
.L312:
#APP
# 159 "axpb.cc" 1
	# axpb_simd_c<$12>: ax+c loop end
# 0 "" 2
#NO_APP
	xorl	%eax, %eax
	leave
	.cfi_remember_state
	.cfi_def_cfa 7, 8
	ret
.L316:
	.cfi_restore_state
	leaq	.LC43(%rip), %rcx
	movl	$149, %edx
	leaq	.LC1(%rip), %rsi
	leaq	.LC10(%rip), %rdi
	call	__assert_fail@PLT
.L317:
	leaq	.LC43(%rip), %rcx
	movl	$150, %edx
	leaq	.LC1(%rip), %rsi
	leaq	.LC4(%rip), %rdi
	call	__assert_fail@PLT
	.cfi_endproc
.LFE5749:
	.size	_Z11axpb_simd_cILi12EEl14axpb_options_tfPff, .-_Z11axpb_simd_cILi12EEl14axpb_options_tfPff
	.section	.rodata._Z24axpb_simd_parallel_m_mnmILi13EEl14axpb_options_tfPff.str1.8,"aMS",@progbits,1
	.align 8
.LC44:
	.string	"long int axpb_simd_parallel_m_mnm(axpb_options_t, float, float*, float) [with int c = 13]"
	.section	.text._Z24axpb_simd_parallel_m_mnmILi13EEl14axpb_options_tfPff,"axG",@progbits,_Z24axpb_simd_parallel_m_mnmILi13EEl14axpb_options_tfPff,comdat
	.p2align 4
	.weak	_Z24axpb_simd_parallel_m_mnmILi13EEl14axpb_options_tfPff
	.type	_Z24axpb_simd_parallel_m_mnmILi13EEl14axpb_options_tfPff, @function
_Z24axpb_simd_parallel_m_mnmILi13EEl14axpb_options_tfPff:
.LFB5754:
	.cfi_startproc
	endbr64
	pushq	%rax
	.cfi_def_cfa_offset 16
	popq	%rax
	.cfi_def_cfa_offset 8
	leaq	.LC44(%rip), %rcx
	movl	$287, %edx
	leaq	.LC1(%rip), %rsi
	leaq	.LC6(%rip), %rdi
	subq	$8, %rsp
	.cfi_def_cfa_offset 16
	call	__assert_fail@PLT
	.cfi_endproc
.LFE5754:
	.size	_Z24axpb_simd_parallel_m_mnmILi13EEl14axpb_options_tfPff, .-_Z24axpb_simd_parallel_m_mnmILi13EEl14axpb_options_tfPff
	.section	.rodata._Z15axpb_simd_m_mnmILi13EEl14axpb_options_tfPff.str1.8,"aMS",@progbits,1
	.align 8
.LC45:
	.string	"long int axpb_simd_m_mnm(axpb_options_t, float, float*, float) [with int c = 13]"
	.section	.text._Z15axpb_simd_m_mnmILi13EEl14axpb_options_tfPff,"axG",@progbits,_Z15axpb_simd_m_mnmILi13EEl14axpb_options_tfPff,comdat
	.p2align 4
	.weak	_Z15axpb_simd_m_mnmILi13EEl14axpb_options_tfPff
	.type	_Z15axpb_simd_m_mnmILi13EEl14axpb_options_tfPff, @function
_Z15axpb_simd_m_mnmILi13EEl14axpb_options_tfPff:
.LFB5753:
	.cfi_startproc
	endbr64
	pushq	%rbp
	.cfi_def_cfa_offset 16
	.cfi_offset 6, -16
	movabsq	$5675921253449092805, %rdx
	movq	%rsp, %rbp
	.cfi_def_cfa_register 6
	movq	56(%rbp), %r8
	movq	64(%rbp), %rsi
	movq	%r8, %rax
	imulq	%rdx
	andq	$-64, %rsp
	movq	%rdx, %rax
	movq	%r8, %rdx
	sarq	$6, %rax
	sarq	$63, %rdx
	subq	%rdx, %rax
	imulq	$208, %rax, %rax
	cmpq	%rax, %r8
	jne	.L332
	cmpq	$1, 32(%rbp)
	jne	.L333
	movq	%rdi, %rcx
	testq	%r8, %r8
	leaq	15(%r8), %rdi
	cmovns	%r8, %rdi
	vmovaps	%xmm0, %xmm2
	vmovaps	%xmm1, %xmm0
	movq	%rcx, %rdx
	sarq	$4, %rdi
	xorl	%ecx, %ecx
	vbroadcastss	%xmm2, %zmm1
	vbroadcastss	%xmm0, %zmm0
	cmpq	$15, %r8
	jle	.L329
.L327:
#APP
# 255 "axpb.cc" 1
	# axpb_simd_m_mnm<$13>: ax+c inner loop begin
# 0 "" 2
#NO_APP
	testq	%rsi, %rsi
	jle	.L324
	vmovups	(%rdx), %zmm14
	vmovups	64(%rdx), %zmm13
	vmovups	128(%rdx), %zmm12
	vmovups	192(%rdx), %zmm11
	vmovups	256(%rdx), %zmm10
	vmovups	320(%rdx), %zmm9
	vmovups	384(%rdx), %zmm8
	vmovups	448(%rdx), %zmm7
	vmovups	512(%rdx), %zmm6
	vmovups	576(%rdx), %zmm5
	vmovups	640(%rdx), %zmm4
	vmovups	704(%rdx), %zmm3
	vmovups	768(%rdx), %zmm2
	xorl	%eax, %eax
	.p2align 4,,10
	.p2align 3
.L325:
	incq	%rax
	vfmadd132ps	%zmm1, %zmm0, %zmm14
	vfmadd132ps	%zmm1, %zmm0, %zmm13
	vfmadd132ps	%zmm1, %zmm0, %zmm12
	vfmadd132ps	%zmm1, %zmm0, %zmm11
	vfmadd132ps	%zmm1, %zmm0, %zmm10
	vfmadd132ps	%zmm1, %zmm0, %zmm9
	vfmadd132ps	%zmm1, %zmm0, %zmm8
	vfmadd132ps	%zmm1, %zmm0, %zmm7
	vfmadd132ps	%zmm1, %zmm0, %zmm6
	vfmadd132ps	%zmm1, %zmm0, %zmm5
	vfmadd132ps	%zmm1, %zmm0, %zmm4
	vfmadd132ps	%zmm1, %zmm0, %zmm3
	vfmadd132ps	%zmm1, %zmm0, %zmm2
	cmpq	%rax, %rsi
	jne	.L325
	vmovups	%zmm14, (%rdx)
	vmovups	%zmm13, 64(%rdx)
	vmovups	%zmm12, 128(%rdx)
	vmovups	%zmm11, 192(%rdx)
	vmovups	%zmm10, 256(%rdx)
	vmovups	%zmm9, 320(%rdx)
	vmovups	%zmm8, 384(%rdx)
	vmovups	%zmm7, 448(%rdx)
	vmovups	%zmm6, 512(%rdx)
	vmovups	%zmm5, 576(%rdx)
	vmovups	%zmm4, 640(%rdx)
	vmovups	%zmm3, 704(%rdx)
	vmovups	%zmm2, 768(%rdx)
.L324:
#APP
# 261 "axpb.cc" 1
	# axpb_simd_m_mnm<$13>: ax+c inner loop end
# 0 "" 2
#NO_APP
	addq	$13, %rcx
	addq	$832, %rdx
	cmpq	%rdi, %rcx
	jl	.L327
.L329:
	xorl	%eax, %eax
	vzeroupper
	leave
	.cfi_remember_state
	.cfi_def_cfa 7, 8
	ret
.L332:
	.cfi_restore_state
	leaq	.LC45(%rip), %rcx
	movl	$251, %edx
	leaq	.LC1(%rip), %rsi
	leaq	.LC8(%rip), %rdi
	call	__assert_fail@PLT
.L333:
	leaq	.LC45(%rip), %rcx
	movl	$252, %edx
	leaq	.LC1(%rip), %rsi
	leaq	.LC4(%rip), %rdi
	call	__assert_fail@PLT
	.cfi_endproc
.LFE5753:
	.size	_Z15axpb_simd_m_mnmILi13EEl14axpb_options_tfPff, .-_Z15axpb_simd_m_mnmILi13EEl14axpb_options_tfPff
	.section	.rodata._Z11axpb_simd_cILi13EEl14axpb_options_tfPff.str1.8,"aMS",@progbits,1
	.align 8
.LC46:
	.string	"long int axpb_simd_c(axpb_options_t, float, float*, float) [with int c = 13]"
	.section	.text._Z11axpb_simd_cILi13EEl14axpb_options_tfPff,"axG",@progbits,_Z11axpb_simd_cILi13EEl14axpb_options_tfPff,comdat
	.p2align 4
	.weak	_Z11axpb_simd_cILi13EEl14axpb_options_tfPff
	.type	_Z11axpb_simd_cILi13EEl14axpb_options_tfPff, @function
_Z11axpb_simd_cILi13EEl14axpb_options_tfPff:
.LFB5752:
	.cfi_startproc
	endbr64
	pushq	%rbp
	.cfi_def_cfa_offset 16
	.cfi_offset 6, -16
	movq	%rsp, %rbp
	.cfi_def_cfa_register 6
	andq	$-64, %rsp
	cmpq	$208, 56(%rbp)
	jne	.L341
	cmpq	$1, 32(%rbp)
	jne	.L342
	movq	64(%rbp), %rdx
#APP
# 153 "axpb.cc" 1
	# axpb_simd_c<$13>: ax+c loop begin
# 0 "" 2
#NO_APP
	testq	%rdx, %rdx
	jle	.L337
	vbroadcastss	%xmm0, %zmm2
	vmovups	(%rdi), %zmm15
	vmovups	64(%rdi), %zmm14
	vmovups	128(%rdi), %zmm13
	vmovups	192(%rdi), %zmm12
	vmovups	256(%rdi), %zmm11
	vmovups	320(%rdi), %zmm10
	vmovups	384(%rdi), %zmm9
	vmovups	448(%rdi), %zmm8
	vmovups	512(%rdi), %zmm7
	vmovups	576(%rdi), %zmm6
	vmovups	640(%rdi), %zmm5
	vmovups	704(%rdi), %zmm4
	vmovups	768(%rdi), %zmm3
	vbroadcastss	%xmm1, %zmm0
	xorl	%eax, %eax
	jmp	.L338
	.p2align 4,,10
	.p2align 3
.L339:
	vmovaps	%zmm1, %zmm3
.L338:
	vfmadd132ps	%zmm2, %zmm0, %zmm3
	incq	%rax
	vfmadd132ps	%zmm2, %zmm0, %zmm15
	vfmadd132ps	%zmm2, %zmm0, %zmm14
	vfmadd132ps	%zmm2, %zmm0, %zmm13
	vfmadd132ps	%zmm2, %zmm0, %zmm12
	vfmadd132ps	%zmm2, %zmm0, %zmm11
	vfmadd132ps	%zmm2, %zmm0, %zmm10
	vfmadd132ps	%zmm2, %zmm0, %zmm9
	vfmadd132ps	%zmm2, %zmm0, %zmm8
	vfmadd132ps	%zmm2, %zmm0, %zmm7
	vfmadd132ps	%zmm2, %zmm0, %zmm6
	vfmadd132ps	%zmm2, %zmm0, %zmm5
	vfmadd132ps	%zmm2, %zmm0, %zmm4
	vmovaps	%zmm3, %zmm1
	cmpq	%rax, %rdx
	jne	.L339
	vmovups	%zmm15, (%rdi)
	vmovups	%zmm14, 64(%rdi)
	vmovups	%zmm13, 128(%rdi)
	vmovups	%zmm12, 192(%rdi)
	vmovups	%zmm11, 256(%rdi)
	vmovups	%zmm10, 320(%rdi)
	vmovups	%zmm9, 384(%rdi)
	vmovups	%zmm8, 448(%rdi)
	vmovups	%zmm7, 512(%rdi)
	vmovups	%zmm6, 576(%rdi)
	vmovups	%zmm5, 640(%rdi)
	vmovups	%zmm4, 704(%rdi)
	vmovups	%zmm3, 768(%rdi)
	vzeroupper
.L337:
#APP
# 159 "axpb.cc" 1
	# axpb_simd_c<$13>: ax+c loop end
# 0 "" 2
#NO_APP
	xorl	%eax, %eax
	leave
	.cfi_remember_state
	.cfi_def_cfa 7, 8
	ret
.L341:
	.cfi_restore_state
	leaq	.LC46(%rip), %rcx
	movl	$149, %edx
	leaq	.LC1(%rip), %rsi
	leaq	.LC10(%rip), %rdi
	call	__assert_fail@PLT
.L342:
	leaq	.LC46(%rip), %rcx
	movl	$150, %edx
	leaq	.LC1(%rip), %rsi
	leaq	.LC4(%rip), %rdi
	call	__assert_fail@PLT
	.cfi_endproc
.LFE5752:
	.size	_Z11axpb_simd_cILi13EEl14axpb_options_tfPff, .-_Z11axpb_simd_cILi13EEl14axpb_options_tfPff
	.section	.rodata._Z24axpb_simd_parallel_m_mnmILi14EEl14axpb_options_tfPff.str1.8,"aMS",@progbits,1
	.align 8
.LC47:
	.string	"long int axpb_simd_parallel_m_mnm(axpb_options_t, float, float*, float) [with int c = 14]"
	.section	.text._Z24axpb_simd_parallel_m_mnmILi14EEl14axpb_options_tfPff,"axG",@progbits,_Z24axpb_simd_parallel_m_mnmILi14EEl14axpb_options_tfPff,comdat
	.p2align 4
	.weak	_Z24axpb_simd_parallel_m_mnmILi14EEl14axpb_options_tfPff
	.type	_Z24axpb_simd_parallel_m_mnmILi14EEl14axpb_options_tfPff, @function
_Z24axpb_simd_parallel_m_mnmILi14EEl14axpb_options_tfPff:
.LFB5757:
	.cfi_startproc
	endbr64
	pushq	%rax
	.cfi_def_cfa_offset 16
	popq	%rax
	.cfi_def_cfa_offset 8
	leaq	.LC47(%rip), %rcx
	movl	$287, %edx
	leaq	.LC1(%rip), %rsi
	leaq	.LC6(%rip), %rdi
	subq	$8, %rsp
	.cfi_def_cfa_offset 16
	call	__assert_fail@PLT
	.cfi_endproc
.LFE5757:
	.size	_Z24axpb_simd_parallel_m_mnmILi14EEl14axpb_options_tfPff, .-_Z24axpb_simd_parallel_m_mnmILi14EEl14axpb_options_tfPff
	.section	.rodata._Z15axpb_simd_m_mnmILi14EEl14axpb_options_tfPff.str1.8,"aMS",@progbits,1
	.align 8
.LC48:
	.string	"long int axpb_simd_m_mnm(axpb_options_t, float, float*, float) [with int c = 14]"
	.section	.text._Z15axpb_simd_m_mnmILi14EEl14axpb_options_tfPff,"axG",@progbits,_Z15axpb_simd_m_mnmILi14EEl14axpb_options_tfPff,comdat
	.p2align 4
	.weak	_Z15axpb_simd_m_mnmILi14EEl14axpb_options_tfPff
	.type	_Z15axpb_simd_m_mnmILi14EEl14axpb_options_tfPff, @function
_Z15axpb_simd_m_mnmILi14EEl14axpb_options_tfPff:
.LFB5756:
	.cfi_startproc
	endbr64
	pushq	%rbp
	.cfi_def_cfa_offset 16
	.cfi_offset 6, -16
	movabsq	$5270498306774157605, %rdx
	movq	%rsp, %rbp
	.cfi_def_cfa_register 6
	movq	56(%rbp), %r8
	movq	64(%rbp), %rsi
	movq	%r8, %rax
	imulq	%rdx
	andq	$-64, %rsp
	movq	%rdx, %rax
	movq	%r8, %rdx
	sarq	$6, %rax
	sarq	$63, %rdx
	subq	%rdx, %rax
	imulq	$224, %rax, %rax
	cmpq	%rax, %r8
	jne	.L357
	cmpq	$1, 32(%rbp)
	jne	.L358
	movq	%rdi, %rcx
	testq	%r8, %r8
	leaq	15(%r8), %rdi
	cmovns	%r8, %rdi
	vmovaps	%xmm0, %xmm2
	vmovaps	%xmm1, %xmm0
	movq	%rcx, %rax
	sarq	$4, %rdi
	xorl	%ecx, %ecx
	vbroadcastss	%xmm2, %zmm1
	vbroadcastss	%xmm0, %zmm0
	cmpq	$15, %r8
	jle	.L354
.L352:
#APP
# 255 "axpb.cc" 1
	# axpb_simd_m_mnm<$14>: ax+c inner loop begin
# 0 "" 2
#NO_APP
	testq	%rsi, %rsi
	jle	.L349
	vmovups	(%rax), %zmm15
	vmovups	64(%rax), %zmm14
	vmovups	128(%rax), %zmm13
	vmovups	192(%rax), %zmm12
	vmovups	256(%rax), %zmm11
	vmovups	320(%rax), %zmm10
	vmovups	384(%rax), %zmm9
	vmovups	448(%rax), %zmm8
	vmovups	512(%rax), %zmm7
	vmovups	576(%rax), %zmm6
	vmovups	640(%rax), %zmm5
	vmovups	704(%rax), %zmm4
	vmovups	768(%rax), %zmm3
	vmovups	832(%rax), %zmm2
	xorl	%edx, %edx
	.p2align 4,,10
	.p2align 3
.L350:
	incq	%rdx
	vfmadd132ps	%zmm1, %zmm0, %zmm15
	vfmadd132ps	%zmm1, %zmm0, %zmm14
	vfmadd132ps	%zmm1, %zmm0, %zmm13
	vfmadd132ps	%zmm1, %zmm0, %zmm12
	vfmadd132ps	%zmm1, %zmm0, %zmm11
	vfmadd132ps	%zmm1, %zmm0, %zmm10
	vfmadd132ps	%zmm1, %zmm0, %zmm9
	vfmadd132ps	%zmm1, %zmm0, %zmm8
	vfmadd132ps	%zmm1, %zmm0, %zmm7
	vfmadd132ps	%zmm1, %zmm0, %zmm6
	vfmadd132ps	%zmm1, %zmm0, %zmm5
	vfmadd132ps	%zmm1, %zmm0, %zmm4
	vfmadd132ps	%zmm1, %zmm0, %zmm3
	vfmadd132ps	%zmm1, %zmm0, %zmm2
	cmpq	%rdx, %rsi
	jne	.L350
	vmovups	%zmm15, (%rax)
	vmovups	%zmm14, 64(%rax)
	vmovups	%zmm13, 128(%rax)
	vmovups	%zmm12, 192(%rax)
	vmovups	%zmm11, 256(%rax)
	vmovups	%zmm10, 320(%rax)
	vmovups	%zmm9, 384(%rax)
	vmovups	%zmm8, 448(%rax)
	vmovups	%zmm7, 512(%rax)
	vmovups	%zmm6, 576(%rax)
	vmovups	%zmm5, 640(%rax)
	vmovups	%zmm4, 704(%rax)
	vmovups	%zmm3, 768(%rax)
	vmovups	%zmm2, 832(%rax)
.L349:
#APP
# 261 "axpb.cc" 1
	# axpb_simd_m_mnm<$14>: ax+c inner loop end
# 0 "" 2
#NO_APP
	addq	$14, %rcx
	addq	$896, %rax
	cmpq	%rdi, %rcx
	jl	.L352
.L354:
	xorl	%eax, %eax
	vzeroupper
	leave
	.cfi_remember_state
	.cfi_def_cfa 7, 8
	ret
.L357:
	.cfi_restore_state
	leaq	.LC48(%rip), %rcx
	movl	$251, %edx
	leaq	.LC1(%rip), %rsi
	leaq	.LC8(%rip), %rdi
	call	__assert_fail@PLT
.L358:
	leaq	.LC48(%rip), %rcx
	movl	$252, %edx
	leaq	.LC1(%rip), %rsi
	leaq	.LC4(%rip), %rdi
	call	__assert_fail@PLT
	.cfi_endproc
.LFE5756:
	.size	_Z15axpb_simd_m_mnmILi14EEl14axpb_options_tfPff, .-_Z15axpb_simd_m_mnmILi14EEl14axpb_options_tfPff
	.section	.rodata._Z11axpb_simd_cILi14EEl14axpb_options_tfPff.str1.8,"aMS",@progbits,1
	.align 8
.LC49:
	.string	"long int axpb_simd_c(axpb_options_t, float, float*, float) [with int c = 14]"
	.section	.text._Z11axpb_simd_cILi14EEl14axpb_options_tfPff,"axG",@progbits,_Z11axpb_simd_cILi14EEl14axpb_options_tfPff,comdat
	.p2align 4
	.weak	_Z11axpb_simd_cILi14EEl14axpb_options_tfPff
	.type	_Z11axpb_simd_cILi14EEl14axpb_options_tfPff, @function
_Z11axpb_simd_cILi14EEl14axpb_options_tfPff:
.LFB5755:
	.cfi_startproc
	endbr64
	pushq	%rbp
	.cfi_def_cfa_offset 16
	.cfi_offset 6, -16
	movq	%rsp, %rbp
	.cfi_def_cfa_register 6
	andq	$-64, %rsp
	cmpq	$224, 56(%rbp)
	jne	.L366
	cmpq	$1, 32(%rbp)
	jne	.L367
	movq	64(%rbp), %rdx
#APP
# 153 "axpb.cc" 1
	# axpb_simd_c<$14>: ax+c loop begin
# 0 "" 2
#NO_APP
	testq	%rdx, %rdx
	jle	.L362
	vbroadcastss	%xmm0, %zmm2
	vmovups	(%rdi), %zmm16
	vmovups	64(%rdi), %zmm15
	vmovups	128(%rdi), %zmm14
	vmovups	192(%rdi), %zmm13
	vmovups	256(%rdi), %zmm12
	vmovups	320(%rdi), %zmm11
	vmovups	384(%rdi), %zmm10
	vmovups	448(%rdi), %zmm9
	vmovups	512(%rdi), %zmm8
	vmovups	576(%rdi), %zmm7
	vmovups	640(%rdi), %zmm6
	vmovups	704(%rdi), %zmm5
	vmovups	768(%rdi), %zmm4
	vmovups	832(%rdi), %zmm3
	vbroadcastss	%xmm1, %zmm0
	xorl	%eax, %eax
	jmp	.L363
	.p2align 4,,10
	.p2align 3
.L364:
	vmovaps	%zmm1, %zmm3
.L363:
	vfmadd132ps	%zmm2, %zmm0, %zmm3
	incq	%rax
	vfmadd132ps	%zmm2, %zmm0, %zmm16
	vfmadd132ps	%zmm2, %zmm0, %zmm15
	vfmadd132ps	%zmm2, %zmm0, %zmm14
	vfmadd132ps	%zmm2, %zmm0, %zmm13
	vfmadd132ps	%zmm2, %zmm0, %zmm12
	vfmadd132ps	%zmm2, %zmm0, %zmm11
	vfmadd132ps	%zmm2, %zmm0, %zmm10
	vfmadd132ps	%zmm2, %zmm0, %zmm9
	vfmadd132ps	%zmm2, %zmm0, %zmm8
	vfmadd132ps	%zmm2, %zmm0, %zmm7
	vfmadd132ps	%zmm2, %zmm0, %zmm6
	vfmadd132ps	%zmm2, %zmm0, %zmm5
	vfmadd132ps	%zmm2, %zmm0, %zmm4
	vmovaps	%zmm3, %zmm1
	cmpq	%rax, %rdx
	jne	.L364
	vmovups	%zmm16, (%rdi)
	vmovups	%zmm15, 64(%rdi)
	vmovups	%zmm14, 128(%rdi)
	vmovups	%zmm13, 192(%rdi)
	vmovups	%zmm12, 256(%rdi)
	vmovups	%zmm11, 320(%rdi)
	vmovups	%zmm10, 384(%rdi)
	vmovups	%zmm9, 448(%rdi)
	vmovups	%zmm8, 512(%rdi)
	vmovups	%zmm7, 576(%rdi)
	vmovups	%zmm6, 640(%rdi)
	vmovups	%zmm5, 704(%rdi)
	vmovups	%zmm4, 768(%rdi)
	vmovups	%zmm3, 832(%rdi)
	vzeroupper
.L362:
#APP
# 159 "axpb.cc" 1
	# axpb_simd_c<$14>: ax+c loop end
# 0 "" 2
#NO_APP
	xorl	%eax, %eax
	leave
	.cfi_remember_state
	.cfi_def_cfa 7, 8
	ret
.L366:
	.cfi_restore_state
	leaq	.LC49(%rip), %rcx
	movl	$149, %edx
	leaq	.LC1(%rip), %rsi
	leaq	.LC10(%rip), %rdi
	call	__assert_fail@PLT
.L367:
	leaq	.LC49(%rip), %rcx
	movl	$150, %edx
	leaq	.LC1(%rip), %rsi
	leaq	.LC4(%rip), %rdi
	call	__assert_fail@PLT
	.cfi_endproc
.LFE5755:
	.size	_Z11axpb_simd_cILi14EEl14axpb_options_tfPff, .-_Z11axpb_simd_cILi14EEl14axpb_options_tfPff
	.section	.rodata._Z24axpb_simd_parallel_m_mnmILi15EEl14axpb_options_tfPff.str1.8,"aMS",@progbits,1
	.align 8
.LC50:
	.string	"long int axpb_simd_parallel_m_mnm(axpb_options_t, float, float*, float) [with int c = 15]"
	.section	.text._Z24axpb_simd_parallel_m_mnmILi15EEl14axpb_options_tfPff,"axG",@progbits,_Z24axpb_simd_parallel_m_mnmILi15EEl14axpb_options_tfPff,comdat
	.p2align 4
	.weak	_Z24axpb_simd_parallel_m_mnmILi15EEl14axpb_options_tfPff
	.type	_Z24axpb_simd_parallel_m_mnmILi15EEl14axpb_options_tfPff, @function
_Z24axpb_simd_parallel_m_mnmILi15EEl14axpb_options_tfPff:
.LFB5760:
	.cfi_startproc
	endbr64
	pushq	%rax
	.cfi_def_cfa_offset 16
	popq	%rax
	.cfi_def_cfa_offset 8
	leaq	.LC50(%rip), %rcx
	movl	$287, %edx
	leaq	.LC1(%rip), %rsi
	leaq	.LC6(%rip), %rdi
	subq	$8, %rsp
	.cfi_def_cfa_offset 16
	call	__assert_fail@PLT
	.cfi_endproc
.LFE5760:
	.size	_Z24axpb_simd_parallel_m_mnmILi15EEl14axpb_options_tfPff, .-_Z24axpb_simd_parallel_m_mnmILi15EEl14axpb_options_tfPff
	.section	.rodata._Z15axpb_simd_m_mnmILi15EEl14axpb_options_tfPff.str1.8,"aMS",@progbits,1
	.align 8
.LC51:
	.string	"long int axpb_simd_m_mnm(axpb_options_t, float, float*, float) [with int c = 15]"
	.section	.text._Z15axpb_simd_m_mnmILi15EEl14axpb_options_tfPff,"axG",@progbits,_Z15axpb_simd_m_mnmILi15EEl14axpb_options_tfPff,comdat
	.p2align 4
	.weak	_Z15axpb_simd_m_mnmILi15EEl14axpb_options_tfPff
	.type	_Z15axpb_simd_m_mnmILi15EEl14axpb_options_tfPff, @function
_Z15axpb_simd_m_mnmILi15EEl14axpb_options_tfPff:
.LFB5759:
	.cfi_startproc
	endbr64
	pushq	%rbp
	.cfi_def_cfa_offset 16
	.cfi_offset 6, -16
	movabsq	$-8608480567731124087, %rdx
	movq	%rsp, %rbp
	.cfi_def_cfa_register 6
	movq	56(%rbp), %r8
	movq	64(%rbp), %rsi
	movq	%r8, %rax
	imulq	%rdx
	andq	$-64, %rsp
	leaq	(%rdx,%r8), %rax
	movq	%r8, %rdx
	sarq	$7, %rax
	sarq	$63, %rdx
	subq	%rdx, %rax
	imulq	$240, %rax, %rax
	cmpq	%rax, %r8
	jne	.L382
	cmpq	$1, 32(%rbp)
	jne	.L383
	movq	%rdi, %rcx
	testq	%r8, %r8
	leaq	15(%r8), %rdi
	cmovns	%r8, %rdi
	vmovaps	%xmm0, %xmm2
	vmovaps	%xmm1, %xmm0
	movq	%rcx, %rax
	sarq	$4, %rdi
	xorl	%ecx, %ecx
	vbroadcastss	%xmm2, %zmm1
	vbroadcastss	%xmm0, %zmm0
	cmpq	$15, %r8
	jle	.L379
.L377:
#APP
# 255 "axpb.cc" 1
	# axpb_simd_m_mnm<$15>: ax+c inner loop begin
# 0 "" 2
#NO_APP
	testq	%rsi, %rsi
	jle	.L374
	vmovups	(%rax), %zmm16
	vmovups	64(%rax), %zmm15
	vmovups	128(%rax), %zmm14
	vmovups	192(%rax), %zmm13
	vmovups	256(%rax), %zmm12
	vmovups	320(%rax), %zmm11
	vmovups	384(%rax), %zmm10
	vmovups	448(%rax), %zmm9
	vmovups	512(%rax), %zmm8
	vmovups	576(%rax), %zmm7
	vmovups	640(%rax), %zmm6
	vmovups	704(%rax), %zmm5
	vmovups	768(%rax), %zmm4
	vmovups	832(%rax), %zmm3
	vmovups	896(%rax), %zmm2
	xorl	%edx, %edx
	.p2align 4,,10
	.p2align 3
.L375:
	incq	%rdx
	vfmadd132ps	%zmm1, %zmm0, %zmm16
	vfmadd132ps	%zmm1, %zmm0, %zmm15
	vfmadd132ps	%zmm1, %zmm0, %zmm14
	vfmadd132ps	%zmm1, %zmm0, %zmm13
	vfmadd132ps	%zmm1, %zmm0, %zmm12
	vfmadd132ps	%zmm1, %zmm0, %zmm11
	vfmadd132ps	%zmm1, %zmm0, %zmm10
	vfmadd132ps	%zmm1, %zmm0, %zmm9
	vfmadd132ps	%zmm1, %zmm0, %zmm8
	vfmadd132ps	%zmm1, %zmm0, %zmm7
	vfmadd132ps	%zmm1, %zmm0, %zmm6
	vfmadd132ps	%zmm1, %zmm0, %zmm5
	vfmadd132ps	%zmm1, %zmm0, %zmm4
	vfmadd132ps	%zmm1, %zmm0, %zmm3
	vfmadd132ps	%zmm1, %zmm0, %zmm2
	cmpq	%rdx, %rsi
	jne	.L375
	vmovups	%zmm16, (%rax)
	vmovups	%zmm15, 64(%rax)
	vmovups	%zmm14, 128(%rax)
	vmovups	%zmm13, 192(%rax)
	vmovups	%zmm12, 256(%rax)
	vmovups	%zmm11, 320(%rax)
	vmovups	%zmm10, 384(%rax)
	vmovups	%zmm9, 448(%rax)
	vmovups	%zmm8, 512(%rax)
	vmovups	%zmm7, 576(%rax)
	vmovups	%zmm6, 640(%rax)
	vmovups	%zmm5, 704(%rax)
	vmovups	%zmm4, 768(%rax)
	vmovups	%zmm3, 832(%rax)
	vmovups	%zmm2, 896(%rax)
.L374:
#APP
# 261 "axpb.cc" 1
	# axpb_simd_m_mnm<$15>: ax+c inner loop end
# 0 "" 2
#NO_APP
	addq	$15, %rcx
	addq	$960, %rax
	cmpq	%rdi, %rcx
	jl	.L377
.L379:
	xorl	%eax, %eax
	vzeroupper
	leave
	.cfi_remember_state
	.cfi_def_cfa 7, 8
	ret
.L382:
	.cfi_restore_state
	leaq	.LC51(%rip), %rcx
	movl	$251, %edx
	leaq	.LC1(%rip), %rsi
	leaq	.LC8(%rip), %rdi
	call	__assert_fail@PLT
.L383:
	leaq	.LC51(%rip), %rcx
	movl	$252, %edx
	leaq	.LC1(%rip), %rsi
	leaq	.LC4(%rip), %rdi
	call	__assert_fail@PLT
	.cfi_endproc
.LFE5759:
	.size	_Z15axpb_simd_m_mnmILi15EEl14axpb_options_tfPff, .-_Z15axpb_simd_m_mnmILi15EEl14axpb_options_tfPff
	.section	.rodata._Z11axpb_simd_cILi15EEl14axpb_options_tfPff.str1.8,"aMS",@progbits,1
	.align 8
.LC52:
	.string	"long int axpb_simd_c(axpb_options_t, float, float*, float) [with int c = 15]"
	.section	.text._Z11axpb_simd_cILi15EEl14axpb_options_tfPff,"axG",@progbits,_Z11axpb_simd_cILi15EEl14axpb_options_tfPff,comdat
	.p2align 4
	.weak	_Z11axpb_simd_cILi15EEl14axpb_options_tfPff
	.type	_Z11axpb_simd_cILi15EEl14axpb_options_tfPff, @function
_Z11axpb_simd_cILi15EEl14axpb_options_tfPff:
.LFB5758:
	.cfi_startproc
	endbr64
	pushq	%rbp
	.cfi_def_cfa_offset 16
	.cfi_offset 6, -16
	movq	%rsp, %rbp
	.cfi_def_cfa_register 6
	andq	$-64, %rsp
	cmpq	$240, 56(%rbp)
	jne	.L391
	cmpq	$1, 32(%rbp)
	jne	.L392
	movq	64(%rbp), %rdx
#APP
# 153 "axpb.cc" 1
	# axpb_simd_c<$15>: ax+c loop begin
# 0 "" 2
#NO_APP
	testq	%rdx, %rdx
	jle	.L387
	vbroadcastss	%xmm0, %zmm2
	vmovups	(%rdi), %zmm17
	vmovups	64(%rdi), %zmm16
	vmovups	128(%rdi), %zmm15
	vmovups	192(%rdi), %zmm14
	vmovups	256(%rdi), %zmm13
	vmovups	320(%rdi), %zmm12
	vmovups	384(%rdi), %zmm11
	vmovups	448(%rdi), %zmm10
	vmovups	512(%rdi), %zmm9
	vmovups	576(%rdi), %zmm8
	vmovups	640(%rdi), %zmm7
	vmovups	704(%rdi), %zmm6
	vmovups	768(%rdi), %zmm5
	vmovups	832(%rdi), %zmm4
	vmovups	896(%rdi), %zmm3
	vbroadcastss	%xmm1, %zmm0
	xorl	%eax, %eax
	jmp	.L388
	.p2align 4,,10
	.p2align 3
.L389:
	vmovaps	%zmm1, %zmm3
.L388:
	vfmadd132ps	%zmm2, %zmm0, %zmm3
	incq	%rax
	vfmadd132ps	%zmm2, %zmm0, %zmm17
	vfmadd132ps	%zmm2, %zmm0, %zmm16
	vfmadd132ps	%zmm2, %zmm0, %zmm15
	vfmadd132ps	%zmm2, %zmm0, %zmm14
	vfmadd132ps	%zmm2, %zmm0, %zmm13
	vfmadd132ps	%zmm2, %zmm0, %zmm12
	vfmadd132ps	%zmm2, %zmm0, %zmm11
	vfmadd132ps	%zmm2, %zmm0, %zmm10
	vfmadd132ps	%zmm2, %zmm0, %zmm9
	vfmadd132ps	%zmm2, %zmm0, %zmm8
	vfmadd132ps	%zmm2, %zmm0, %zmm7
	vfmadd132ps	%zmm2, %zmm0, %zmm6
	vfmadd132ps	%zmm2, %zmm0, %zmm5
	vfmadd132ps	%zmm2, %zmm0, %zmm4
	vmovaps	%zmm3, %zmm1
	cmpq	%rax, %rdx
	jne	.L389
	vmovups	%zmm17, (%rdi)
	vmovups	%zmm16, 64(%rdi)
	vmovups	%zmm15, 128(%rdi)
	vmovups	%zmm14, 192(%rdi)
	vmovups	%zmm13, 256(%rdi)
	vmovups	%zmm12, 320(%rdi)
	vmovups	%zmm11, 384(%rdi)
	vmovups	%zmm10, 448(%rdi)
	vmovups	%zmm9, 512(%rdi)
	vmovups	%zmm8, 576(%rdi)
	vmovups	%zmm7, 640(%rdi)
	vmovups	%zmm6, 704(%rdi)
	vmovups	%zmm5, 768(%rdi)
	vmovups	%zmm4, 832(%rdi)
	vmovups	%zmm3, 896(%rdi)
	vzeroupper
.L387:
#APP
# 159 "axpb.cc" 1
	# axpb_simd_c<$15>: ax+c loop end
# 0 "" 2
#NO_APP
	xorl	%eax, %eax
	leave
	.cfi_remember_state
	.cfi_def_cfa 7, 8
	ret
.L391:
	.cfi_restore_state
	leaq	.LC52(%rip), %rcx
	movl	$149, %edx
	leaq	.LC1(%rip), %rsi
	leaq	.LC10(%rip), %rdi
	call	__assert_fail@PLT
.L392:
	leaq	.LC52(%rip), %rcx
	movl	$150, %edx
	leaq	.LC1(%rip), %rsi
	leaq	.LC4(%rip), %rdi
	call	__assert_fail@PLT
	.cfi_endproc
.LFE5758:
	.size	_Z11axpb_simd_cILi15EEl14axpb_options_tfPff, .-_Z11axpb_simd_cILi15EEl14axpb_options_tfPff
	.section	.rodata._Z15axpb_simd_m_mnmILi16EEl14axpb_options_tfPff.str1.8,"aMS",@progbits,1
	.align 8
.LC53:
	.string	"long int axpb_simd_m_mnm(axpb_options_t, float, float*, float) [with int c = 16]"
	.section	.text._Z15axpb_simd_m_mnmILi16EEl14axpb_options_tfPff,"axG",@progbits,_Z15axpb_simd_m_mnmILi16EEl14axpb_options_tfPff,comdat
	.p2align 4
	.weak	_Z15axpb_simd_m_mnmILi16EEl14axpb_options_tfPff
	.type	_Z15axpb_simd_m_mnmILi16EEl14axpb_options_tfPff, @function
_Z15axpb_simd_m_mnmILi16EEl14axpb_options_tfPff:
.LFB5762:
	.cfi_startproc
	endbr64
	pushq	%rbp
	.cfi_def_cfa_offset 16
	.cfi_offset 6, -16
	movq	%rsp, %rbp
	.cfi_def_cfa_register 6
	movq	56(%rbp), %rdx
	movq	64(%rbp), %rcx
	andq	$-64, %rsp
	testb	%dl, %dl
	jne	.L405
	cmpq	$1, 32(%rbp)
	jne	.L406
	testq	%rdx, %rdx
	movq	%rdi, %rax
	leaq	15(%rdx), %rdi
	cmovns	%rdx, %rdi
	vmovaps	%xmm0, %xmm2
	vmovaps	%xmm1, %xmm0
	sarq	$4, %rdi
	xorl	%esi, %esi
	vbroadcastss	%xmm2, %zmm1
	vbroadcastss	%xmm0, %zmm0
	cmpq	$15, %rdx
	jle	.L402
.L400:
#APP
# 255 "axpb.cc" 1
	# axpb_simd_m_mnm<$16>: ax+c inner loop begin
# 0 "" 2
#NO_APP
	testq	%rcx, %rcx
	jle	.L397
	vmovups	(%rax), %zmm17
	vmovups	64(%rax), %zmm16
	vmovups	128(%rax), %zmm15
	vmovups	192(%rax), %zmm14
	vmovups	256(%rax), %zmm13
	vmovups	320(%rax), %zmm12
	vmovups	384(%rax), %zmm11
	vmovups	448(%rax), %zmm10
	vmovups	512(%rax), %zmm9
	vmovups	576(%rax), %zmm8
	vmovups	640(%rax), %zmm7
	vmovups	704(%rax), %zmm6
	vmovups	768(%rax), %zmm5
	vmovups	832(%rax), %zmm4
	vmovups	896(%rax), %zmm3
	vmovups	960(%rax), %zmm2
	xorl	%edx, %edx
	.p2align 4,,10
	.p2align 3
.L398:
	incq	%rdx
	vfmadd132ps	%zmm1, %zmm0, %zmm17
	vfmadd132ps	%zmm1, %zmm0, %zmm16
	vfmadd132ps	%zmm1, %zmm0, %zmm15
	vfmadd132ps	%zmm1, %zmm0, %zmm14
	vfmadd132ps	%zmm1, %zmm0, %zmm13
	vfmadd132ps	%zmm1, %zmm0, %zmm12
	vfmadd132ps	%zmm1, %zmm0, %zmm11
	vfmadd132ps	%zmm1, %zmm0, %zmm10
	vfmadd132ps	%zmm1, %zmm0, %zmm9
	vfmadd132ps	%zmm1, %zmm0, %zmm8
	vfmadd132ps	%zmm1, %zmm0, %zmm7
	vfmadd132ps	%zmm1, %zmm0, %zmm6
	vfmadd132ps	%zmm1, %zmm0, %zmm5
	vfmadd132ps	%zmm1, %zmm0, %zmm4
	vfmadd132ps	%zmm1, %zmm0, %zmm3
	vfmadd132ps	%zmm1, %zmm0, %zmm2
	cmpq	%rdx, %rcx
	jne	.L398
	vmovups	%zmm17, (%rax)
	vmovups	%zmm16, 64(%rax)
	vmovups	%zmm15, 128(%rax)
	vmovups	%zmm14, 192(%rax)
	vmovups	%zmm13, 256(%rax)
	vmovups	%zmm12, 320(%rax)
	vmovups	%zmm11, 384(%rax)
	vmovups	%zmm10, 448(%rax)
	vmovups	%zmm9, 512(%rax)
	vmovups	%zmm8, 576(%rax)
	vmovups	%zmm7, 640(%rax)
	vmovups	%zmm6, 704(%rax)
	vmovups	%zmm5, 768(%rax)
	vmovups	%zmm4, 832(%rax)
	vmovups	%zmm3, 896(%rax)
	vmovups	%zmm2, 960(%rax)
.L397:
#APP
# 261 "axpb.cc" 1
	# axpb_simd_m_mnm<$16>: ax+c inner loop end
# 0 "" 2
#NO_APP
	addq	$16, %rsi
	addq	$1024, %rax
	cmpq	%rdi, %rsi
	jl	.L400
.L402:
	xorl	%eax, %eax
	vzeroupper
	leave
	.cfi_remember_state
	.cfi_def_cfa 7, 8
	ret
.L405:
	.cfi_restore_state
	leaq	.LC53(%rip), %rcx
	movl	$251, %edx
	leaq	.LC1(%rip), %rsi
	leaq	.LC8(%rip), %rdi
	call	__assert_fail@PLT
.L406:
	leaq	.LC53(%rip), %rcx
	movl	$252, %edx
	leaq	.LC1(%rip), %rsi
	leaq	.LC4(%rip), %rdi
	call	__assert_fail@PLT
	.cfi_endproc
.LFE5762:
	.size	_Z15axpb_simd_m_mnmILi16EEl14axpb_options_tfPff, .-_Z15axpb_simd_m_mnmILi16EEl14axpb_options_tfPff
	.section	.rodata._Z11axpb_simd_cILi16EEl14axpb_options_tfPff.str1.8,"aMS",@progbits,1
	.align 8
.LC54:
	.string	"long int axpb_simd_c(axpb_options_t, float, float*, float) [with int c = 16]"
	.section	.text._Z11axpb_simd_cILi16EEl14axpb_options_tfPff,"axG",@progbits,_Z11axpb_simd_cILi16EEl14axpb_options_tfPff,comdat
	.p2align 4
	.weak	_Z11axpb_simd_cILi16EEl14axpb_options_tfPff
	.type	_Z11axpb_simd_cILi16EEl14axpb_options_tfPff, @function
_Z11axpb_simd_cILi16EEl14axpb_options_tfPff:
.LFB5761:
	.cfi_startproc
	endbr64
	pushq	%rbp
	.cfi_def_cfa_offset 16
	.cfi_offset 6, -16
	movq	%rsp, %rbp
	.cfi_def_cfa_register 6
	andq	$-64, %rsp
	cmpq	$256, 56(%rbp)
	jne	.L414
	cmpq	$1, 32(%rbp)
	jne	.L415
	movq	64(%rbp), %rdx
#APP
# 153 "axpb.cc" 1
	# axpb_simd_c<$16>: ax+c loop begin
# 0 "" 2
#NO_APP
	testq	%rdx, %rdx
	jle	.L410
	vmovaps	%xmm0, %xmm2
	vmovups	(%rdi), %zmm17
	vmovaps	%xmm1, %xmm0
	vmovups	64(%rdi), %zmm16
	vmovups	128(%rdi), %zmm15
	vmovups	192(%rdi), %zmm14
	vmovups	256(%rdi), %zmm13
	vmovups	320(%rdi), %zmm12
	vmovups	384(%rdi), %zmm11
	vmovups	448(%rdi), %zmm10
	vmovups	512(%rdi), %zmm9
	vmovups	576(%rdi), %zmm8
	vmovups	640(%rdi), %zmm7
	vmovups	704(%rdi), %zmm6
	vmovups	768(%rdi), %zmm5
	vmovups	832(%rdi), %zmm4
	vmovups	896(%rdi), %zmm3
	vmovups	960(%rdi), %zmm1
	vbroadcastss	%xmm2, %zmm2
	vbroadcastss	%xmm0, %zmm0
	xorl	%eax, %eax
	.p2align 4,,10
	.p2align 3
.L411:
	incq	%rax
	vfmadd132ps	%zmm2, %zmm0, %zmm17
	vfmadd132ps	%zmm2, %zmm0, %zmm16
	vfmadd132ps	%zmm2, %zmm0, %zmm15
	vfmadd132ps	%zmm2, %zmm0, %zmm14
	vfmadd132ps	%zmm2, %zmm0, %zmm13
	vfmadd132ps	%zmm2, %zmm0, %zmm12
	vfmadd132ps	%zmm2, %zmm0, %zmm11
	vfmadd132ps	%zmm2, %zmm0, %zmm10
	vfmadd132ps	%zmm2, %zmm0, %zmm9
	vfmadd132ps	%zmm2, %zmm0, %zmm8
	vfmadd132ps	%zmm2, %zmm0, %zmm7
	vfmadd132ps	%zmm2, %zmm0, %zmm6
	vfmadd132ps	%zmm2, %zmm0, %zmm5
	vfmadd132ps	%zmm2, %zmm0, %zmm4
	vfmadd132ps	%zmm2, %zmm0, %zmm3
	vfmadd132ps	%zmm2, %zmm0, %zmm1
	cmpq	%rax, %rdx
	jne	.L411
	vmovups	%zmm17, (%rdi)
	vmovups	%zmm16, 64(%rdi)
	vmovups	%zmm15, 128(%rdi)
	vmovups	%zmm14, 192(%rdi)
	vmovups	%zmm13, 256(%rdi)
	vmovups	%zmm12, 320(%rdi)
	vmovups	%zmm11, 384(%rdi)
	vmovups	%zmm10, 448(%rdi)
	vmovups	%zmm9, 512(%rdi)
	vmovups	%zmm8, 576(%rdi)
	vmovups	%zmm7, 640(%rdi)
	vmovups	%zmm6, 704(%rdi)
	vmovups	%zmm5, 768(%rdi)
	vmovups	%zmm4, 832(%rdi)
	vmovups	%zmm3, 896(%rdi)
	vmovups	%zmm1, 960(%rdi)
	vzeroupper
.L410:
#APP
# 159 "axpb.cc" 1
	# axpb_simd_c<$16>: ax+c loop end
# 0 "" 2
#NO_APP
	xorl	%eax, %eax
	leave
	.cfi_remember_state
	.cfi_def_cfa 7, 8
	ret
.L414:
	.cfi_restore_state
	leaq	.LC54(%rip), %rcx
	movl	$149, %edx
	leaq	.LC1(%rip), %rsi
	leaq	.LC10(%rip), %rdi
	call	__assert_fail@PLT
.L415:
	leaq	.LC54(%rip), %rcx
	movl	$150, %edx
	leaq	.LC1(%rip), %rsi
	leaq	.LC4(%rip), %rdi
	call	__assert_fail@PLT
	.cfi_endproc
.LFE5761:
	.size	_Z11axpb_simd_cILi16EEl14axpb_options_tfPff, .-_Z11axpb_simd_cILi16EEl14axpb_options_tfPff
	.section	.rodata._Z24axpb_simd_parallel_m_mnmILi17EEl14axpb_options_tfPff.str1.8,"aMS",@progbits,1
	.align 8
.LC55:
	.string	"long int axpb_simd_parallel_m_mnm(axpb_options_t, float, float*, float) [with int c = 17]"
	.section	.text._Z24axpb_simd_parallel_m_mnmILi17EEl14axpb_options_tfPff,"axG",@progbits,_Z24axpb_simd_parallel_m_mnmILi17EEl14axpb_options_tfPff,comdat
	.p2align 4
	.weak	_Z24axpb_simd_parallel_m_mnmILi17EEl14axpb_options_tfPff
	.type	_Z24axpb_simd_parallel_m_mnmILi17EEl14axpb_options_tfPff, @function
_Z24axpb_simd_parallel_m_mnmILi17EEl14axpb_options_tfPff:
.LFB5766:
	.cfi_startproc
	endbr64
	pushq	%rax
	.cfi_def_cfa_offset 16
	popq	%rax
	.cfi_def_cfa_offset 8
	leaq	.LC55(%rip), %rcx
	movl	$287, %edx
	leaq	.LC1(%rip), %rsi
	leaq	.LC6(%rip), %rdi
	subq	$8, %rsp
	.cfi_def_cfa_offset 16
	call	__assert_fail@PLT
	.cfi_endproc
.LFE5766:
	.size	_Z24axpb_simd_parallel_m_mnmILi17EEl14axpb_options_tfPff, .-_Z24axpb_simd_parallel_m_mnmILi17EEl14axpb_options_tfPff
	.section	.rodata._Z15axpb_simd_m_mnmILi17EEl14axpb_options_tfPff.str1.8,"aMS",@progbits,1
	.align 8
.LC56:
	.string	"long int axpb_simd_m_mnm(axpb_options_t, float, float*, float) [with int c = 17]"
	.section	.text._Z15axpb_simd_m_mnmILi17EEl14axpb_options_tfPff,"axG",@progbits,_Z15axpb_simd_m_mnmILi17EEl14axpb_options_tfPff,comdat
	.p2align 4
	.weak	_Z15axpb_simd_m_mnmILi17EEl14axpb_options_tfPff
	.type	_Z15axpb_simd_m_mnmILi17EEl14axpb_options_tfPff, @function
_Z15axpb_simd_m_mnmILi17EEl14axpb_options_tfPff:
.LFB5765:
	.cfi_startproc
	endbr64
	pushq	%rbp
	.cfi_def_cfa_offset 16
	.cfi_offset 6, -16
	movabsq	$8680820740569200761, %rdx
	movq	%rsp, %rbp
	.cfi_def_cfa_register 6
	movq	56(%rbp), %r8
	movq	64(%rbp), %rsi
	movq	%r8, %rax
	imulq	%rdx
	andq	$-64, %rsp
	movq	%rdx, %rax
	movq	%r8, %rdx
	sarq	$7, %rax
	sarq	$63, %rdx
	subq	%rdx, %rax
	imulq	$272, %rax, %rax
	cmpq	%rax, %r8
	jne	.L434
	cmpq	$1, 32(%rbp)
	jne	.L435
	movq	%rdi, %rcx
	testq	%r8, %r8
	leaq	15(%r8), %rdi
	cmovns	%r8, %rdi
	movq	%rcx, %rax
	sarq	$4, %rdi
	xorl	%ecx, %ecx
	cmpq	$15, %r8
	jle	.L430
	vmovaps	%xmm0, %xmm2
	leaq	-3(%rsi), %r9
	vmovaps	%xmm1, %xmm0
	vbroadcastss	%xmm0, %zmm0
	vbroadcastss	%xmm2, %zmm1
	andq	$-2, %r9
.L424:
#APP
# 255 "axpb.cc" 1
	# axpb_simd_m_mnm<$17>: ax+c inner loop begin
# 0 "" 2
#NO_APP
	testq	%rsi, %rsi
	jle	.L427
	xorl	%edx, %edx
	cmpq	$2, %rsi
	jle	.L425
	vmovups	(%rax), %zmm18
	vmovups	64(%rax), %zmm17
	vmovups	128(%rax), %zmm16
	vmovups	192(%rax), %zmm15
	vmovups	256(%rax), %zmm14
	vmovups	320(%rax), %zmm13
	vmovups	384(%rax), %zmm12
	vmovups	448(%rax), %zmm11
	vmovups	512(%rax), %zmm10
	vmovups	576(%rax), %zmm9
	vmovups	640(%rax), %zmm8
	vmovups	704(%rax), %zmm7
	vmovups	768(%rax), %zmm6
	vmovups	832(%rax), %zmm5
	vmovups	896(%rax), %zmm4
	vmovups	960(%rax), %zmm3
	vmovups	1024(%rax), %zmm2
.L426:
	vfmadd132ps	%zmm1, %zmm0, %zmm18
	vfmadd132ps	%zmm1, %zmm0, %zmm17
	vfmadd132ps	%zmm1, %zmm0, %zmm16
	vfmadd132ps	%zmm1, %zmm0, %zmm15
	vfmadd132ps	%zmm1, %zmm0, %zmm14
	vfmadd132ps	%zmm1, %zmm0, %zmm13
	vfmadd132ps	%zmm1, %zmm0, %zmm12
	vfmadd132ps	%zmm1, %zmm0, %zmm11
	vfmadd132ps	%zmm1, %zmm0, %zmm10
	vfmadd132ps	%zmm1, %zmm0, %zmm9
	vfmadd132ps	%zmm1, %zmm0, %zmm8
	vfmadd132ps	%zmm1, %zmm0, %zmm7
	vfmadd132ps	%zmm1, %zmm0, %zmm6
	vfmadd132ps	%zmm1, %zmm0, %zmm5
	vfmadd132ps	%zmm1, %zmm0, %zmm4
	vfmadd132ps	%zmm1, %zmm0, %zmm3
	vfmadd132ps	%zmm1, %zmm0, %zmm2
	vfmadd132ps	%zmm1, %zmm0, %zmm18
	vfmadd132ps	%zmm1, %zmm0, %zmm17
	vfmadd132ps	%zmm1, %zmm0, %zmm16
	vfmadd132ps	%zmm1, %zmm0, %zmm15
	vfmadd132ps	%zmm1, %zmm0, %zmm14
	vfmadd132ps	%zmm1, %zmm0, %zmm13
	vfmadd132ps	%zmm1, %zmm0, %zmm12
	vfmadd132ps	%zmm1, %zmm0, %zmm11
	vfmadd132ps	%zmm1, %zmm0, %zmm10
	vfmadd132ps	%zmm1, %zmm0, %zmm9
	vfmadd132ps	%zmm1, %zmm0, %zmm8
	vfmadd132ps	%zmm1, %zmm0, %zmm7
	vfmadd132ps	%zmm1, %zmm0, %zmm6
	vfmadd132ps	%zmm1, %zmm0, %zmm5
	vfmadd132ps	%zmm1, %zmm0, %zmm4
	vfmadd132ps	%zmm1, %zmm0, %zmm3
	vfmadd132ps	%zmm1, %zmm0, %zmm2
	movq	%rdx, %r8
	vmovups	%zmm18, (%rax)
	vmovups	%zmm17, 64(%rax)
	vmovups	%zmm16, 128(%rax)
	vmovups	%zmm15, 192(%rax)
	vmovups	%zmm14, 256(%rax)
	vmovups	%zmm13, 320(%rax)
	vmovups	%zmm12, 384(%rax)
	vmovups	%zmm11, 448(%rax)
	vmovups	%zmm10, 512(%rax)
	vmovups	%zmm9, 576(%rax)
	vmovups	%zmm8, 640(%rax)
	vmovups	%zmm7, 704(%rax)
	vmovups	%zmm6, 768(%rax)
	vmovups	%zmm5, 832(%rax)
	vmovups	%zmm4, 896(%rax)
	vmovups	%zmm3, 960(%rax)
	vmovups	%zmm2, 1024(%rax)
	addq	$2, %rdx
	cmpq	%r9, %r8
	jne	.L426
.L425:
	vmovups	(%rax), %zmm18
	vmovups	64(%rax), %zmm17
	vmovups	128(%rax), %zmm16
	vmovups	192(%rax), %zmm15
	vmovups	256(%rax), %zmm14
	vmovups	320(%rax), %zmm13
	vmovups	384(%rax), %zmm12
	vmovups	448(%rax), %zmm11
	vmovups	512(%rax), %zmm10
	vmovups	576(%rax), %zmm9
	vmovups	640(%rax), %zmm8
	vmovups	704(%rax), %zmm7
	vmovups	768(%rax), %zmm6
	vmovups	832(%rax), %zmm5
	vmovups	896(%rax), %zmm4
	vmovups	960(%rax), %zmm3
	vmovups	1024(%rax), %zmm2
	.p2align 4,,10
	.p2align 3
.L428:
	vfmadd132ps	%zmm1, %zmm0, %zmm18
	vfmadd132ps	%zmm1, %zmm0, %zmm17
	vfmadd132ps	%zmm1, %zmm0, %zmm16
	vfmadd132ps	%zmm1, %zmm0, %zmm15
	vfmadd132ps	%zmm1, %zmm0, %zmm14
	vfmadd132ps	%zmm1, %zmm0, %zmm13
	vfmadd132ps	%zmm1, %zmm0, %zmm12
	vfmadd132ps	%zmm1, %zmm0, %zmm11
	vfmadd132ps	%zmm1, %zmm0, %zmm10
	vfmadd132ps	%zmm1, %zmm0, %zmm9
	vfmadd132ps	%zmm1, %zmm0, %zmm8
	vfmadd132ps	%zmm1, %zmm0, %zmm7
	vfmadd132ps	%zmm1, %zmm0, %zmm6
	vfmadd132ps	%zmm1, %zmm0, %zmm5
	vfmadd132ps	%zmm1, %zmm0, %zmm4
	vfmadd132ps	%zmm1, %zmm0, %zmm3
	vfmadd132ps	%zmm1, %zmm0, %zmm2
	incq	%rdx
	vmovups	%zmm18, (%rax)
	vmovups	%zmm17, 64(%rax)
	vmovups	%zmm16, 128(%rax)
	vmovups	%zmm15, 192(%rax)
	vmovups	%zmm14, 256(%rax)
	vmovups	%zmm13, 320(%rax)
	vmovups	%zmm12, 384(%rax)
	vmovups	%zmm11, 448(%rax)
	vmovups	%zmm10, 512(%rax)
	vmovups	%zmm9, 576(%rax)
	vmovups	%zmm8, 640(%rax)
	vmovups	%zmm7, 704(%rax)
	vmovups	%zmm6, 768(%rax)
	vmovups	%zmm5, 832(%rax)
	vmovups	%zmm4, 896(%rax)
	vmovups	%zmm3, 960(%rax)
	vmovups	%zmm2, 1024(%rax)
	cmpq	%rdx, %rsi
	jg	.L428
.L427:
#APP
# 261 "axpb.cc" 1
	# axpb_simd_m_mnm<$17>: ax+c inner loop end
# 0 "" 2
#NO_APP
	addq	$17, %rcx
	addq	$1088, %rax
	cmpq	%rcx, %rdi
	jg	.L424
	vzeroupper
.L430:
	xorl	%eax, %eax
	leave
	.cfi_remember_state
	.cfi_def_cfa 7, 8
	ret
.L434:
	.cfi_restore_state
	leaq	.LC56(%rip), %rcx
	movl	$251, %edx
	leaq	.LC1(%rip), %rsi
	leaq	.LC8(%rip), %rdi
	call	__assert_fail@PLT
.L435:
	leaq	.LC56(%rip), %rcx
	movl	$252, %edx
	leaq	.LC1(%rip), %rsi
	leaq	.LC4(%rip), %rdi
	call	__assert_fail@PLT
	.cfi_endproc
.LFE5765:
	.size	_Z15axpb_simd_m_mnmILi17EEl14axpb_options_tfPff, .-_Z15axpb_simd_m_mnmILi17EEl14axpb_options_tfPff
	.section	.rodata._Z11axpb_simd_cILi17EEl14axpb_options_tfPff.str1.8,"aMS",@progbits,1
	.align 8
.LC57:
	.string	"long int axpb_simd_c(axpb_options_t, float, float*, float) [with int c = 17]"
	.section	.text._Z11axpb_simd_cILi17EEl14axpb_options_tfPff,"axG",@progbits,_Z11axpb_simd_cILi17EEl14axpb_options_tfPff,comdat
	.p2align 4
	.weak	_Z11axpb_simd_cILi17EEl14axpb_options_tfPff
	.type	_Z11axpb_simd_cILi17EEl14axpb_options_tfPff, @function
_Z11axpb_simd_cILi17EEl14axpb_options_tfPff:
.LFB5764:
	.cfi_startproc
	endbr64
	pushq	%rbp
	.cfi_def_cfa_offset 16
	.cfi_offset 6, -16
	movq	%rsp, %rbp
	.cfi_def_cfa_register 6
	andq	$-64, %rsp
	cmpq	$272, 56(%rbp)
	jne	.L449
	cmpq	$1, 32(%rbp)
	jne	.L450
	movq	64(%rbp), %rdx
#APP
# 153 "axpb.cc" 1
	# axpb_simd_c<$17>: ax+c loop begin
# 0 "" 2
#NO_APP
	testq	%rdx, %rdx
	jle	.L443
	vbroadcastss	%xmm0, %zmm0
	vbroadcastss	%xmm1, %zmm1
	cmpq	$2, %rdx
	jle	.L444
	leaq	-3(%rdx), %rcx
	vmovups	(%rdi), %zmm18
	vmovups	64(%rdi), %zmm17
	vmovups	128(%rdi), %zmm16
	vmovups	192(%rdi), %zmm15
	vmovups	256(%rdi), %zmm14
	vmovups	320(%rdi), %zmm13
	vmovups	384(%rdi), %zmm12
	vmovups	448(%rdi), %zmm11
	vmovups	512(%rdi), %zmm10
	vmovups	576(%rdi), %zmm9
	vmovups	640(%rdi), %zmm8
	vmovups	704(%rdi), %zmm7
	vmovups	768(%rdi), %zmm6
	vmovups	832(%rdi), %zmm5
	vmovups	896(%rdi), %zmm4
	vmovups	960(%rdi), %zmm3
	vmovups	1024(%rdi), %zmm2
	andq	$-2, %rcx
	xorl	%eax, %eax
.L441:
	vfmadd132ps	%zmm0, %zmm1, %zmm18
	vfmadd132ps	%zmm0, %zmm1, %zmm17
	vfmadd132ps	%zmm0, %zmm1, %zmm16
	vfmadd132ps	%zmm0, %zmm1, %zmm15
	vfmadd132ps	%zmm0, %zmm1, %zmm14
	vfmadd132ps	%zmm0, %zmm1, %zmm13
	vfmadd132ps	%zmm0, %zmm1, %zmm12
	vfmadd132ps	%zmm0, %zmm1, %zmm11
	vfmadd132ps	%zmm0, %zmm1, %zmm10
	vfmadd132ps	%zmm0, %zmm1, %zmm9
	vfmadd132ps	%zmm0, %zmm1, %zmm8
	vfmadd132ps	%zmm0, %zmm1, %zmm7
	vfmadd132ps	%zmm0, %zmm1, %zmm6
	vfmadd132ps	%zmm0, %zmm1, %zmm5
	vfmadd132ps	%zmm0, %zmm1, %zmm4
	vfmadd132ps	%zmm0, %zmm1, %zmm3
	vfmadd132ps	%zmm0, %zmm1, %zmm2
	movq	%rax, %rsi
	vfmadd132ps	%zmm0, %zmm1, %zmm18
	vfmadd132ps	%zmm0, %zmm1, %zmm17
	vfmadd132ps	%zmm0, %zmm1, %zmm16
	vfmadd132ps	%zmm0, %zmm1, %zmm15
	vfmadd132ps	%zmm0, %zmm1, %zmm14
	vfmadd132ps	%zmm0, %zmm1, %zmm13
	vfmadd132ps	%zmm0, %zmm1, %zmm12
	vfmadd132ps	%zmm0, %zmm1, %zmm11
	vfmadd132ps	%zmm0, %zmm1, %zmm10
	vfmadd132ps	%zmm0, %zmm1, %zmm9
	vfmadd132ps	%zmm0, %zmm1, %zmm8
	vfmadd132ps	%zmm0, %zmm1, %zmm7
	vfmadd132ps	%zmm0, %zmm1, %zmm6
	vfmadd132ps	%zmm0, %zmm1, %zmm5
	vfmadd132ps	%zmm0, %zmm1, %zmm4
	vfmadd132ps	%zmm0, %zmm1, %zmm3
	vfmadd132ps	%zmm0, %zmm1, %zmm2
	addq	$2, %rax
	cmpq	%rcx, %rsi
	jne	.L441
	vmovups	%zmm18, (%rdi)
	vmovups	%zmm17, 64(%rdi)
	vmovups	%zmm16, 128(%rdi)
	vmovups	%zmm15, 192(%rdi)
	vmovups	%zmm14, 256(%rdi)
	vmovups	%zmm13, 320(%rdi)
	vmovups	%zmm12, 384(%rdi)
	vmovups	%zmm11, 448(%rdi)
	vmovups	%zmm10, 512(%rdi)
	vmovups	%zmm9, 576(%rdi)
	vmovups	%zmm8, 640(%rdi)
	vmovups	%zmm7, 704(%rdi)
	vmovups	%zmm6, 768(%rdi)
	vmovups	%zmm5, 832(%rdi)
	vmovups	%zmm4, 896(%rdi)
	vmovups	%zmm3, 960(%rdi)
	vmovups	%zmm2, 1024(%rdi)
.L440:
	vmovups	(%rdi), %zmm18
	vmovups	64(%rdi), %zmm17
	vmovups	128(%rdi), %zmm16
	vmovups	192(%rdi), %zmm15
	vmovups	256(%rdi), %zmm14
	vmovups	320(%rdi), %zmm13
	vmovups	384(%rdi), %zmm12
	vmovups	448(%rdi), %zmm11
	vmovups	512(%rdi), %zmm10
	vmovups	576(%rdi), %zmm9
	vmovups	640(%rdi), %zmm8
	vmovups	704(%rdi), %zmm7
	vmovups	768(%rdi), %zmm6
	vmovups	832(%rdi), %zmm5
	vmovups	896(%rdi), %zmm4
	vmovups	960(%rdi), %zmm3
	vmovups	1024(%rdi), %zmm2
	.p2align 4,,10
	.p2align 3
.L442:
	incq	%rax
	vfmadd132ps	%zmm0, %zmm1, %zmm18
	vfmadd132ps	%zmm0, %zmm1, %zmm17
	vfmadd132ps	%zmm0, %zmm1, %zmm16
	vfmadd132ps	%zmm0, %zmm1, %zmm15
	vfmadd132ps	%zmm0, %zmm1, %zmm14
	vfmadd132ps	%zmm0, %zmm1, %zmm13
	vfmadd132ps	%zmm0, %zmm1, %zmm12
	vfmadd132ps	%zmm0, %zmm1, %zmm11
	vfmadd132ps	%zmm0, %zmm1, %zmm10
	vfmadd132ps	%zmm0, %zmm1, %zmm9
	vfmadd132ps	%zmm0, %zmm1, %zmm8
	vfmadd132ps	%zmm0, %zmm1, %zmm7
	vfmadd132ps	%zmm0, %zmm1, %zmm6
	vfmadd132ps	%zmm0, %zmm1, %zmm5
	vfmadd132ps	%zmm0, %zmm1, %zmm4
	vfmadd132ps	%zmm0, %zmm1, %zmm3
	vfmadd132ps	%zmm0, %zmm1, %zmm2
	cmpq	%rax, %rdx
	jg	.L442
	vmovups	%zmm18, (%rdi)
	vmovups	%zmm17, 64(%rdi)
	vmovups	%zmm16, 128(%rdi)
	vmovups	%zmm15, 192(%rdi)
	vmovups	%zmm14, 256(%rdi)
	vmovups	%zmm13, 320(%rdi)
	vmovups	%zmm12, 384(%rdi)
	vmovups	%zmm11, 448(%rdi)
	vmovups	%zmm10, 512(%rdi)
	vmovups	%zmm9, 576(%rdi)
	vmovups	%zmm8, 640(%rdi)
	vmovups	%zmm7, 704(%rdi)
	vmovups	%zmm6, 768(%rdi)
	vmovups	%zmm5, 832(%rdi)
	vmovups	%zmm4, 896(%rdi)
	vmovups	%zmm3, 960(%rdi)
	vmovups	%zmm2, 1024(%rdi)
	vzeroupper
.L443:
#APP
# 159 "axpb.cc" 1
	# axpb_simd_c<$17>: ax+c loop end
# 0 "" 2
#NO_APP
	xorl	%eax, %eax
	leave
	.cfi_remember_state
	.cfi_def_cfa 7, 8
	ret
.L444:
	.cfi_restore_state
	xorl	%eax, %eax
	jmp	.L440
.L449:
	leaq	.LC57(%rip), %rcx
	movl	$149, %edx
	leaq	.LC1(%rip), %rsi
	leaq	.LC10(%rip), %rdi
	call	__assert_fail@PLT
.L450:
	leaq	.LC57(%rip), %rcx
	movl	$150, %edx
	leaq	.LC1(%rip), %rsi
	leaq	.LC4(%rip), %rdi
	call	__assert_fail@PLT
	.cfi_endproc
.LFE5764:
	.size	_Z11axpb_simd_cILi17EEl14axpb_options_tfPff, .-_Z11axpb_simd_cILi17EEl14axpb_options_tfPff
	.section	.rodata._Z24axpb_simd_parallel_m_mnmILi18EEl14axpb_options_tfPff.str1.8,"aMS",@progbits,1
	.align 8
.LC58:
	.string	"long int axpb_simd_parallel_m_mnm(axpb_options_t, float, float*, float) [with int c = 18]"
	.section	.text._Z24axpb_simd_parallel_m_mnmILi18EEl14axpb_options_tfPff,"axG",@progbits,_Z24axpb_simd_parallel_m_mnmILi18EEl14axpb_options_tfPff,comdat
	.p2align 4
	.weak	_Z24axpb_simd_parallel_m_mnmILi18EEl14axpb_options_tfPff
	.type	_Z24axpb_simd_parallel_m_mnmILi18EEl14axpb_options_tfPff, @function
_Z24axpb_simd_parallel_m_mnmILi18EEl14axpb_options_tfPff:
.LFB5769:
	.cfi_startproc
	endbr64
	pushq	%rax
	.cfi_def_cfa_offset 16
	popq	%rax
	.cfi_def_cfa_offset 8
	leaq	.LC58(%rip), %rcx
	movl	$287, %edx
	leaq	.LC1(%rip), %rsi
	leaq	.LC6(%rip), %rdi
	subq	$8, %rsp
	.cfi_def_cfa_offset 16
	call	__assert_fail@PLT
	.cfi_endproc
.LFE5769:
	.size	_Z24axpb_simd_parallel_m_mnmILi18EEl14axpb_options_tfPff, .-_Z24axpb_simd_parallel_m_mnmILi18EEl14axpb_options_tfPff
	.section	.rodata._Z15axpb_simd_m_mnmILi18EEl14axpb_options_tfPff.str1.8,"aMS",@progbits,1
	.align 8
.LC59:
	.string	"long int axpb_simd_m_mnm(axpb_options_t, float, float*, float) [with int c = 18]"
	.section	.text._Z15axpb_simd_m_mnmILi18EEl14axpb_options_tfPff,"axG",@progbits,_Z15axpb_simd_m_mnmILi18EEl14axpb_options_tfPff,comdat
	.p2align 4
	.weak	_Z15axpb_simd_m_mnmILi18EEl14axpb_options_tfPff
	.type	_Z15axpb_simd_m_mnmILi18EEl14axpb_options_tfPff, @function
_Z15axpb_simd_m_mnmILi18EEl14axpb_options_tfPff:
.LFB5768:
	.cfi_startproc
	endbr64
	pushq	%rbp
	.cfi_def_cfa_offset 16
	.cfi_offset 6, -16
	movabsq	$1024819115206086201, %rdx
	movq	%rdi, %rsi
	movq	%rsp, %rbp
	.cfi_def_cfa_register 6
	movq	56(%rbp), %rcx
	movq	64(%rbp), %rdi
	movq	%rcx, %rax
	imulq	%rdx
	andq	$-64, %rsp
	movq	%rdx, %rax
	movq	%rcx, %rdx
	sarq	$4, %rax
	sarq	$63, %rdx
	subq	%rdx, %rax
	leaq	(%rax,%rax,8), %rax
	salq	$5, %rax
	cmpq	%rax, %rcx
	jne	.L473
	cmpq	$1, 32(%rbp)
	jne	.L474
	testq	%rcx, %rcx
	leaq	15(%rcx), %r10
	cmovns	%rcx, %r10
	leaq	1152(%rsi), %rdx
	sarq	$4, %r10
	xorl	%r9d, %r9d
	vbroadcastss	%xmm0, %zmm2
	vbroadcastss	%xmm1, %zmm1
	leaq	-1(%rdi), %r11
	cmpq	$15, %rcx
	jle	.L467
.L459:
#APP
# 255 "axpb.cc" 1
	# axpb_simd_m_mnm<$18>: ax+c inner loop begin
# 0 "" 2
#NO_APP
	testq	%rdi, %rdi
	jle	.L464
	cmpq	$2, %rdi
	jle	.L466
	movl	$1, %r8d
.L462:
	movq	%rsi, %rax
	.p2align 4,,10
	.p2align 3
.L461:
	vmovaps	%zmm2, %zmm0
	vfmadd132ps	(%rax), %zmm1, %zmm0
	addq	$64, %rax
	vfmadd132ps	%zmm2, %zmm1, %zmm0
	vmovups	%zmm0, -64(%rax)
	cmpq	%rdx, %rax
	jne	.L461
	leaq	1(%r8), %rcx
	addq	$2, %r8
	cmpq	%r8, %r11
	jg	.L462
	.p2align 4,,10
	.p2align 3
.L465:
	movq	%rsi, %rax
	.p2align 4,,10
	.p2align 3
.L463:
	vmovaps	%zmm2, %zmm0
	vfmadd132ps	(%rax), %zmm1, %zmm0
	addq	$64, %rax
	vmovups	%zmm0, -64(%rax)
	cmpq	%rdx, %rax
	jne	.L463
	incq	%rcx
	cmpq	%rcx, %rdi
	jg	.L465
.L464:
#APP
# 261 "axpb.cc" 1
	# axpb_simd_m_mnm<$18>: ax+c inner loop end
# 0 "" 2
#NO_APP
	addq	$18, %r9
	addq	$1152, %rsi
	addq	$1152, %rdx
	cmpq	%r9, %r10
	jg	.L459
.L467:
	xorl	%eax, %eax
	vzeroupper
	leave
	.cfi_remember_state
	.cfi_def_cfa 7, 8
	ret
.L466:
	.cfi_restore_state
	xorl	%ecx, %ecx
	jmp	.L465
.L473:
	leaq	.LC59(%rip), %rcx
	movl	$251, %edx
	leaq	.LC1(%rip), %rsi
	leaq	.LC8(%rip), %rdi
	call	__assert_fail@PLT
.L474:
	leaq	.LC59(%rip), %rcx
	movl	$252, %edx
	leaq	.LC1(%rip), %rsi
	leaq	.LC4(%rip), %rdi
	call	__assert_fail@PLT
	.cfi_endproc
.LFE5768:
	.size	_Z15axpb_simd_m_mnmILi18EEl14axpb_options_tfPff, .-_Z15axpb_simd_m_mnmILi18EEl14axpb_options_tfPff
	.section	.rodata._Z11axpb_simd_cILi18EEl14axpb_options_tfPff.str1.8,"aMS",@progbits,1
	.align 8
.LC60:
	.string	"long int axpb_simd_c(axpb_options_t, float, float*, float) [with int c = 18]"
	.section	.text._Z11axpb_simd_cILi18EEl14axpb_options_tfPff,"axG",@progbits,_Z11axpb_simd_cILi18EEl14axpb_options_tfPff,comdat
	.p2align 4
	.weak	_Z11axpb_simd_cILi18EEl14axpb_options_tfPff
	.type	_Z11axpb_simd_cILi18EEl14axpb_options_tfPff, @function
_Z11axpb_simd_cILi18EEl14axpb_options_tfPff:
.LFB5767:
	.cfi_startproc
	endbr64
	pushq	%rbp
	.cfi_def_cfa_offset 16
	.cfi_offset 6, -16
	movq	%rsp, %rbp
	.cfi_def_cfa_register 6
	andq	$-64, %rsp
	cmpq	$288, 56(%rbp)
	jne	.L491
	movq	32(%rbp), %r8
	cmpq	$1, %r8
	jne	.L492
	movq	64(%rbp), %rsi
#APP
# 153 "axpb.cc" 1
	# axpb_simd_c<$18>: ax+c loop begin
# 0 "" 2
#NO_APP
	testq	%rsi, %rsi
	jle	.L483
	vbroadcastss	%xmm0, %zmm2
	vbroadcastss	%xmm1, %zmm1
	leaq	-1(%rsi), %r9
	cmpq	$2, %rsi
	jle	.L485
	leaq	1152(%rdi), %rdx
.L481:
	movq	%rdi, %rax
	.p2align 4,,10
	.p2align 3
.L480:
	vmovaps	%zmm2, %zmm0
	vfmadd132ps	(%rax), %zmm1, %zmm0
	addq	$64, %rax
	vfmadd132ps	%zmm2, %zmm1, %zmm0
	vmovups	%zmm0, -64(%rax)
	cmpq	%rdx, %rax
	jne	.L480
	leaq	1(%r8), %rcx
	addq	$2, %r8
	cmpq	%r8, %r9
	jg	.L481
	.p2align 4,,10
	.p2align 3
.L484:
	movq	%rdi, %rax
	.p2align 4,,10
	.p2align 3
.L482:
	vmovaps	%zmm2, %zmm0
	vfmadd132ps	(%rax), %zmm1, %zmm0
	addq	$64, %rax
	vmovups	%zmm0, -64(%rax)
	cmpq	%rdx, %rax
	jne	.L482
	incq	%rcx
	cmpq	%rcx, %rsi
	jg	.L484
	vzeroupper
.L483:
#APP
# 159 "axpb.cc" 1
	# axpb_simd_c<$18>: ax+c loop end
# 0 "" 2
#NO_APP
	xorl	%eax, %eax
	leave
	.cfi_remember_state
	.cfi_def_cfa 7, 8
	ret
.L485:
	.cfi_restore_state
	xorl	%ecx, %ecx
	leaq	1152(%rdi), %rdx
	jmp	.L484
.L491:
	leaq	.LC60(%rip), %rcx
	movl	$149, %edx
	leaq	.LC1(%rip), %rsi
	leaq	.LC10(%rip), %rdi
	call	__assert_fail@PLT
.L492:
	leaq	.LC60(%rip), %rcx
	movl	$150, %edx
	leaq	.LC1(%rip), %rsi
	leaq	.LC4(%rip), %rdi
	call	__assert_fail@PLT
	.cfi_endproc
.LFE5767:
	.size	_Z11axpb_simd_cILi18EEl14axpb_options_tfPff, .-_Z11axpb_simd_cILi18EEl14axpb_options_tfPff
	.section	.rodata._Z24axpb_simd_parallel_m_mnmILi19EEl14axpb_options_tfPff.str1.8,"aMS",@progbits,1
	.align 8
.LC61:
	.string	"long int axpb_simd_parallel_m_mnm(axpb_options_t, float, float*, float) [with int c = 19]"
	.section	.text._Z24axpb_simd_parallel_m_mnmILi19EEl14axpb_options_tfPff,"axG",@progbits,_Z24axpb_simd_parallel_m_mnmILi19EEl14axpb_options_tfPff,comdat
	.p2align 4
	.weak	_Z24axpb_simd_parallel_m_mnmILi19EEl14axpb_options_tfPff
	.type	_Z24axpb_simd_parallel_m_mnmILi19EEl14axpb_options_tfPff, @function
_Z24axpb_simd_parallel_m_mnmILi19EEl14axpb_options_tfPff:
.LFB5772:
	.cfi_startproc
	endbr64
	pushq	%rax
	.cfi_def_cfa_offset 16
	popq	%rax
	.cfi_def_cfa_offset 8
	leaq	.LC61(%rip), %rcx
	movl	$287, %edx
	leaq	.LC1(%rip), %rsi
	leaq	.LC6(%rip), %rdi
	subq	$8, %rsp
	.cfi_def_cfa_offset 16
	call	__assert_fail@PLT
	.cfi_endproc
.LFE5772:
	.size	_Z24axpb_simd_parallel_m_mnmILi19EEl14axpb_options_tfPff, .-_Z24axpb_simd_parallel_m_mnmILi19EEl14axpb_options_tfPff
	.section	.rodata._Z15axpb_simd_m_mnmILi19EEl14axpb_options_tfPff.str1.8,"aMS",@progbits,1
	.align 8
.LC62:
	.string	"long int axpb_simd_m_mnm(axpb_options_t, float, float*, float) [with int c = 19]"
	.section	.text._Z15axpb_simd_m_mnmILi19EEl14axpb_options_tfPff,"axG",@progbits,_Z15axpb_simd_m_mnmILi19EEl14axpb_options_tfPff,comdat
	.p2align 4
	.weak	_Z15axpb_simd_m_mnmILi19EEl14axpb_options_tfPff
	.type	_Z15axpb_simd_m_mnmILi19EEl14axpb_options_tfPff, @function
_Z15axpb_simd_m_mnmILi19EEl14axpb_options_tfPff:
.LFB5771:
	.cfi_startproc
	endbr64
	pushq	%rbp
	.cfi_def_cfa_offset 16
	.cfi_offset 6, -16
	movabsq	$485440633518672411, %rdx
	movq	%rdi, %rsi
	movq	%rsp, %rbp
	.cfi_def_cfa_register 6
	movq	56(%rbp), %rcx
	movq	64(%rbp), %rdi
	movq	%rcx, %rax
	imulq	%rdx
	andq	$-64, %rsp
	movq	%rdx, %rax
	movq	%rcx, %rdx
	sarq	$3, %rax
	sarq	$63, %rdx
	subq	%rdx, %rax
	imulq	$304, %rax, %rax
	cmpq	%rax, %rcx
	jne	.L515
	cmpq	$1, 32(%rbp)
	jne	.L516
	testq	%rcx, %rcx
	leaq	15(%rcx), %r10
	cmovns	%rcx, %r10
	leaq	1216(%rsi), %rdx
	sarq	$4, %r10
	xorl	%r9d, %r9d
	vbroadcastss	%xmm0, %zmm2
	vbroadcastss	%xmm1, %zmm1
	leaq	-1(%rdi), %r11
	cmpq	$15, %rcx
	jle	.L509
.L501:
#APP
# 255 "axpb.cc" 1
	# axpb_simd_m_mnm<$19>: ax+c inner loop begin
# 0 "" 2
#NO_APP
	testq	%rdi, %rdi
	jle	.L506
	cmpq	$2, %rdi
	jle	.L508
	movl	$1, %r8d
.L504:
	movq	%rsi, %rax
	.p2align 4,,10
	.p2align 3
.L503:
	vmovaps	%zmm2, %zmm0
	vfmadd132ps	(%rax), %zmm1, %zmm0
	addq	$64, %rax
	vfmadd132ps	%zmm2, %zmm1, %zmm0
	vmovups	%zmm0, -64(%rax)
	cmpq	%rdx, %rax
	jne	.L503
	leaq	1(%r8), %rcx
	addq	$2, %r8
	cmpq	%r8, %r11
	jg	.L504
	.p2align 4,,10
	.p2align 3
.L507:
	movq	%rsi, %rax
	.p2align 4,,10
	.p2align 3
.L505:
	vmovaps	%zmm2, %zmm0
	vfmadd132ps	(%rax), %zmm1, %zmm0
	addq	$64, %rax
	vmovups	%zmm0, -64(%rax)
	cmpq	%rdx, %rax
	jne	.L505
	incq	%rcx
	cmpq	%rcx, %rdi
	jg	.L507
.L506:
#APP
# 261 "axpb.cc" 1
	# axpb_simd_m_mnm<$19>: ax+c inner loop end
# 0 "" 2
#NO_APP
	addq	$19, %r9
	addq	$1216, %rsi
	addq	$1216, %rdx
	cmpq	%r9, %r10
	jg	.L501
.L509:
	xorl	%eax, %eax
	vzeroupper
	leave
	.cfi_remember_state
	.cfi_def_cfa 7, 8
	ret
.L508:
	.cfi_restore_state
	xorl	%ecx, %ecx
	jmp	.L507
.L515:
	leaq	.LC62(%rip), %rcx
	movl	$251, %edx
	leaq	.LC1(%rip), %rsi
	leaq	.LC8(%rip), %rdi
	call	__assert_fail@PLT
.L516:
	leaq	.LC62(%rip), %rcx
	movl	$252, %edx
	leaq	.LC1(%rip), %rsi
	leaq	.LC4(%rip), %rdi
	call	__assert_fail@PLT
	.cfi_endproc
.LFE5771:
	.size	_Z15axpb_simd_m_mnmILi19EEl14axpb_options_tfPff, .-_Z15axpb_simd_m_mnmILi19EEl14axpb_options_tfPff
	.section	.rodata._Z11axpb_simd_cILi19EEl14axpb_options_tfPff.str1.8,"aMS",@progbits,1
	.align 8
.LC63:
	.string	"long int axpb_simd_c(axpb_options_t, float, float*, float) [with int c = 19]"
	.section	.text._Z11axpb_simd_cILi19EEl14axpb_options_tfPff,"axG",@progbits,_Z11axpb_simd_cILi19EEl14axpb_options_tfPff,comdat
	.p2align 4
	.weak	_Z11axpb_simd_cILi19EEl14axpb_options_tfPff
	.type	_Z11axpb_simd_cILi19EEl14axpb_options_tfPff, @function
_Z11axpb_simd_cILi19EEl14axpb_options_tfPff:
.LFB5770:
	.cfi_startproc
	endbr64
	pushq	%rbp
	.cfi_def_cfa_offset 16
	.cfi_offset 6, -16
	movq	%rsp, %rbp
	.cfi_def_cfa_register 6
	andq	$-64, %rsp
	cmpq	$304, 56(%rbp)
	jne	.L533
	movq	32(%rbp), %r8
	cmpq	$1, %r8
	jne	.L534
	movq	64(%rbp), %rsi
#APP
# 153 "axpb.cc" 1
	# axpb_simd_c<$19>: ax+c loop begin
# 0 "" 2
#NO_APP
	testq	%rsi, %rsi
	jle	.L525
	vbroadcastss	%xmm0, %zmm2
	vbroadcastss	%xmm1, %zmm1
	leaq	-1(%rsi), %r9
	cmpq	$2, %rsi
	jle	.L527
	leaq	1216(%rdi), %rdx
.L523:
	movq	%rdi, %rax
	.p2align 4,,10
	.p2align 3
.L522:
	vmovaps	%zmm2, %zmm0
	vfmadd132ps	(%rax), %zmm1, %zmm0
	addq	$64, %rax
	vfmadd132ps	%zmm2, %zmm1, %zmm0
	vmovups	%zmm0, -64(%rax)
	cmpq	%rdx, %rax
	jne	.L522
	leaq	1(%r8), %rcx
	addq	$2, %r8
	cmpq	%r8, %r9
	jg	.L523
	.p2align 4,,10
	.p2align 3
.L526:
	movq	%rdi, %rax
	.p2align 4,,10
	.p2align 3
.L524:
	vmovaps	%zmm2, %zmm0
	vfmadd132ps	(%rax), %zmm1, %zmm0
	addq	$64, %rax
	vmovups	%zmm0, -64(%rax)
	cmpq	%rdx, %rax
	jne	.L524
	incq	%rcx
	cmpq	%rcx, %rsi
	jg	.L526
	vzeroupper
.L525:
#APP
# 159 "axpb.cc" 1
	# axpb_simd_c<$19>: ax+c loop end
# 0 "" 2
#NO_APP
	xorl	%eax, %eax
	leave
	.cfi_remember_state
	.cfi_def_cfa 7, 8
	ret
.L527:
	.cfi_restore_state
	xorl	%ecx, %ecx
	leaq	1216(%rdi), %rdx
	jmp	.L526
.L533:
	leaq	.LC63(%rip), %rcx
	movl	$149, %edx
	leaq	.LC1(%rip), %rsi
	leaq	.LC10(%rip), %rdi
	call	__assert_fail@PLT
.L534:
	leaq	.LC63(%rip), %rcx
	movl	$150, %edx
	leaq	.LC1(%rip), %rsi
	leaq	.LC4(%rip), %rdi
	call	__assert_fail@PLT
	.cfi_endproc
.LFE5770:
	.size	_Z11axpb_simd_cILi19EEl14axpb_options_tfPff, .-_Z11axpb_simd_cILi19EEl14axpb_options_tfPff
	.section	.rodata._Z24axpb_simd_parallel_m_mnmILi20EEl14axpb_options_tfPff.str1.8,"aMS",@progbits,1
	.align 8
.LC64:
	.string	"long int axpb_simd_parallel_m_mnm(axpb_options_t, float, float*, float) [with int c = 20]"
	.section	.text._Z24axpb_simd_parallel_m_mnmILi20EEl14axpb_options_tfPff,"axG",@progbits,_Z24axpb_simd_parallel_m_mnmILi20EEl14axpb_options_tfPff,comdat
	.p2align 4
	.weak	_Z24axpb_simd_parallel_m_mnmILi20EEl14axpb_options_tfPff
	.type	_Z24axpb_simd_parallel_m_mnmILi20EEl14axpb_options_tfPff, @function
_Z24axpb_simd_parallel_m_mnmILi20EEl14axpb_options_tfPff:
.LFB5775:
	.cfi_startproc
	endbr64
	pushq	%rax
	.cfi_def_cfa_offset 16
	popq	%rax
	.cfi_def_cfa_offset 8
	leaq	.LC64(%rip), %rcx
	movl	$287, %edx
	leaq	.LC1(%rip), %rsi
	leaq	.LC6(%rip), %rdi
	subq	$8, %rsp
	.cfi_def_cfa_offset 16
	call	__assert_fail@PLT
	.cfi_endproc
.LFE5775:
	.size	_Z24axpb_simd_parallel_m_mnmILi20EEl14axpb_options_tfPff, .-_Z24axpb_simd_parallel_m_mnmILi20EEl14axpb_options_tfPff
	.section	.rodata._Z15axpb_simd_m_mnmILi20EEl14axpb_options_tfPff.str1.8,"aMS",@progbits,1
	.align 8
.LC65:
	.string	"long int axpb_simd_m_mnm(axpb_options_t, float, float*, float) [with int c = 20]"
	.section	.text._Z15axpb_simd_m_mnmILi20EEl14axpb_options_tfPff,"axG",@progbits,_Z15axpb_simd_m_mnmILi20EEl14axpb_options_tfPff,comdat
	.p2align 4
	.weak	_Z15axpb_simd_m_mnmILi20EEl14axpb_options_tfPff
	.type	_Z15axpb_simd_m_mnmILi20EEl14axpb_options_tfPff, @function
_Z15axpb_simd_m_mnmILi20EEl14axpb_options_tfPff:
.LFB5774:
	.cfi_startproc
	endbr64
	pushq	%rbp
	.cfi_def_cfa_offset 16
	.cfi_offset 6, -16
	movabsq	$7378697629483820647, %rdx
	movq	%rdi, %rsi
	movq	%rsp, %rbp
	.cfi_def_cfa_register 6
	movq	56(%rbp), %rcx
	movq	64(%rbp), %rdi
	movq	%rcx, %rax
	imulq	%rdx
	andq	$-64, %rsp
	movq	%rdx, %rax
	movq	%rcx, %rdx
	sarq	$7, %rax
	sarq	$63, %rdx
	subq	%rdx, %rax
	leaq	(%rax,%rax,4), %rax
	salq	$6, %rax
	cmpq	%rax, %rcx
	jne	.L557
	cmpq	$1, 32(%rbp)
	jne	.L558
	testq	%rcx, %rcx
	leaq	15(%rcx), %r10
	cmovns	%rcx, %r10
	leaq	1280(%rsi), %rdx
	sarq	$4, %r10
	xorl	%r9d, %r9d
	vbroadcastss	%xmm0, %zmm2
	vbroadcastss	%xmm1, %zmm1
	leaq	-1(%rdi), %r11
	cmpq	$15, %rcx
	jle	.L551
.L543:
#APP
# 255 "axpb.cc" 1
	# axpb_simd_m_mnm<$20>: ax+c inner loop begin
# 0 "" 2
#NO_APP
	testq	%rdi, %rdi
	jle	.L548
	cmpq	$2, %rdi
	jle	.L550
	movl	$1, %r8d
.L546:
	movq	%rsi, %rax
	.p2align 4,,10
	.p2align 3
.L545:
	vmovaps	%zmm2, %zmm0
	vfmadd132ps	(%rax), %zmm1, %zmm0
	addq	$64, %rax
	vfmadd132ps	%zmm2, %zmm1, %zmm0
	vmovups	%zmm0, -64(%rax)
	cmpq	%rdx, %rax
	jne	.L545
	leaq	1(%r8), %rcx
	addq	$2, %r8
	cmpq	%r8, %r11
	jg	.L546
	.p2align 4,,10
	.p2align 3
.L549:
	movq	%rsi, %rax
	.p2align 4,,10
	.p2align 3
.L547:
	vmovaps	%zmm2, %zmm0
	vfmadd132ps	(%rax), %zmm1, %zmm0
	addq	$64, %rax
	vmovups	%zmm0, -64(%rax)
	cmpq	%rdx, %rax
	jne	.L547
	incq	%rcx
	cmpq	%rcx, %rdi
	jg	.L549
.L548:
#APP
# 261 "axpb.cc" 1
	# axpb_simd_m_mnm<$20>: ax+c inner loop end
# 0 "" 2
#NO_APP
	addq	$20, %r9
	addq	$1280, %rsi
	addq	$1280, %rdx
	cmpq	%r9, %r10
	jg	.L543
.L551:
	xorl	%eax, %eax
	vzeroupper
	leave
	.cfi_remember_state
	.cfi_def_cfa 7, 8
	ret
.L550:
	.cfi_restore_state
	xorl	%ecx, %ecx
	jmp	.L549
.L557:
	leaq	.LC65(%rip), %rcx
	movl	$251, %edx
	leaq	.LC1(%rip), %rsi
	leaq	.LC8(%rip), %rdi
	call	__assert_fail@PLT
.L558:
	leaq	.LC65(%rip), %rcx
	movl	$252, %edx
	leaq	.LC1(%rip), %rsi
	leaq	.LC4(%rip), %rdi
	call	__assert_fail@PLT
	.cfi_endproc
.LFE5774:
	.size	_Z15axpb_simd_m_mnmILi20EEl14axpb_options_tfPff, .-_Z15axpb_simd_m_mnmILi20EEl14axpb_options_tfPff
	.section	.rodata._Z11axpb_simd_cILi20EEl14axpb_options_tfPff.str1.8,"aMS",@progbits,1
	.align 8
.LC66:
	.string	"long int axpb_simd_c(axpb_options_t, float, float*, float) [with int c = 20]"
	.section	.text._Z11axpb_simd_cILi20EEl14axpb_options_tfPff,"axG",@progbits,_Z11axpb_simd_cILi20EEl14axpb_options_tfPff,comdat
	.p2align 4
	.weak	_Z11axpb_simd_cILi20EEl14axpb_options_tfPff
	.type	_Z11axpb_simd_cILi20EEl14axpb_options_tfPff, @function
_Z11axpb_simd_cILi20EEl14axpb_options_tfPff:
.LFB5773:
	.cfi_startproc
	endbr64
	pushq	%rbp
	.cfi_def_cfa_offset 16
	.cfi_offset 6, -16
	movq	%rsp, %rbp
	.cfi_def_cfa_register 6
	andq	$-64, %rsp
	cmpq	$320, 56(%rbp)
	jne	.L575
	movq	32(%rbp), %r8
	cmpq	$1, %r8
	jne	.L576
	movq	64(%rbp), %rsi
#APP
# 153 "axpb.cc" 1
	# axpb_simd_c<$20>: ax+c loop begin
# 0 "" 2
#NO_APP
	testq	%rsi, %rsi
	jle	.L567
	vbroadcastss	%xmm0, %zmm2
	vbroadcastss	%xmm1, %zmm1
	leaq	-1(%rsi), %r9
	cmpq	$2, %rsi
	jle	.L569
	leaq	1280(%rdi), %rdx
.L565:
	movq	%rdi, %rax
	.p2align 4,,10
	.p2align 3
.L564:
	vmovaps	%zmm2, %zmm0
	vfmadd132ps	(%rax), %zmm1, %zmm0
	addq	$64, %rax
	vfmadd132ps	%zmm2, %zmm1, %zmm0
	vmovups	%zmm0, -64(%rax)
	cmpq	%rdx, %rax
	jne	.L564
	leaq	1(%r8), %rcx
	addq	$2, %r8
	cmpq	%r8, %r9
	jg	.L565
	.p2align 4,,10
	.p2align 3
.L568:
	movq	%rdi, %rax
	.p2align 4,,10
	.p2align 3
.L566:
	vmovaps	%zmm2, %zmm0
	vfmadd132ps	(%rax), %zmm1, %zmm0
	addq	$64, %rax
	vmovups	%zmm0, -64(%rax)
	cmpq	%rdx, %rax
	jne	.L566
	incq	%rcx
	cmpq	%rcx, %rsi
	jg	.L568
	vzeroupper
.L567:
#APP
# 159 "axpb.cc" 1
	# axpb_simd_c<$20>: ax+c loop end
# 0 "" 2
#NO_APP
	xorl	%eax, %eax
	leave
	.cfi_remember_state
	.cfi_def_cfa 7, 8
	ret
.L569:
	.cfi_restore_state
	xorl	%ecx, %ecx
	leaq	1280(%rdi), %rdx
	jmp	.L568
.L575:
	leaq	.LC66(%rip), %rcx
	movl	$149, %edx
	leaq	.LC1(%rip), %rsi
	leaq	.LC10(%rip), %rdi
	call	__assert_fail@PLT
.L576:
	leaq	.LC66(%rip), %rcx
	movl	$150, %edx
	leaq	.LC1(%rip), %rsi
	leaq	.LC4(%rip), %rdi
	call	__assert_fail@PLT
	.cfi_endproc
.LFE5773:
	.size	_Z11axpb_simd_cILi20EEl14axpb_options_tfPff, .-_Z11axpb_simd_cILi20EEl14axpb_options_tfPff
	.section	.rodata._Z24axpb_simd_parallel_m_mnmILi21EEl14axpb_options_tfPff.str1.8,"aMS",@progbits,1
	.align 8
.LC67:
	.string	"long int axpb_simd_parallel_m_mnm(axpb_options_t, float, float*, float) [with int c = 21]"
	.section	.text._Z24axpb_simd_parallel_m_mnmILi21EEl14axpb_options_tfPff,"axG",@progbits,_Z24axpb_simd_parallel_m_mnmILi21EEl14axpb_options_tfPff,comdat
	.p2align 4
	.weak	_Z24axpb_simd_parallel_m_mnmILi21EEl14axpb_options_tfPff
	.type	_Z24axpb_simd_parallel_m_mnmILi21EEl14axpb_options_tfPff, @function
_Z24axpb_simd_parallel_m_mnmILi21EEl14axpb_options_tfPff:
.LFB5778:
	.cfi_startproc
	endbr64
	pushq	%rax
	.cfi_def_cfa_offset 16
	popq	%rax
	.cfi_def_cfa_offset 8
	leaq	.LC67(%rip), %rcx
	movl	$287, %edx
	leaq	.LC1(%rip), %rsi
	leaq	.LC6(%rip), %rdi
	subq	$8, %rsp
	.cfi_def_cfa_offset 16
	call	__assert_fail@PLT
	.cfi_endproc
.LFE5778:
	.size	_Z24axpb_simd_parallel_m_mnmILi21EEl14axpb_options_tfPff, .-_Z24axpb_simd_parallel_m_mnmILi21EEl14axpb_options_tfPff
	.section	.rodata._Z15axpb_simd_m_mnmILi21EEl14axpb_options_tfPff.str1.8,"aMS",@progbits,1
	.align 8
.LC68:
	.string	"long int axpb_simd_m_mnm(axpb_options_t, float, float*, float) [with int c = 21]"
	.section	.text._Z15axpb_simd_m_mnmILi21EEl14axpb_options_tfPff,"axG",@progbits,_Z15axpb_simd_m_mnmILi21EEl14axpb_options_tfPff,comdat
	.p2align 4
	.weak	_Z15axpb_simd_m_mnmILi21EEl14axpb_options_tfPff
	.type	_Z15axpb_simd_m_mnmILi21EEl14axpb_options_tfPff, @function
_Z15axpb_simd_m_mnmILi21EEl14axpb_options_tfPff:
.LFB5777:
	.cfi_startproc
	endbr64
	pushq	%rbp
	.cfi_def_cfa_offset 16
	.cfi_offset 6, -16
	movabsq	$-4392081922311798003, %rdx
	movq	%rdi, %rsi
	movq	%rsp, %rbp
	.cfi_def_cfa_register 6
	movq	56(%rbp), %rcx
	movq	64(%rbp), %rdi
	movq	%rcx, %rax
	imulq	%rdx
	andq	$-64, %rsp
	leaq	(%rdx,%rcx), %rax
	movq	%rcx, %rdx
	sarq	$8, %rax
	sarq	$63, %rdx
	subq	%rdx, %rax
	imulq	$336, %rax, %rax
	cmpq	%rax, %rcx
	jne	.L599
	cmpq	$1, 32(%rbp)
	jne	.L600
	testq	%rcx, %rcx
	leaq	15(%rcx), %r10
	cmovns	%rcx, %r10
	leaq	1344(%rsi), %rdx
	sarq	$4, %r10
	xorl	%r9d, %r9d
	vbroadcastss	%xmm0, %zmm2
	vbroadcastss	%xmm1, %zmm1
	leaq	-1(%rdi), %r11
	cmpq	$15, %rcx
	jle	.L593
.L585:
#APP
# 255 "axpb.cc" 1
	# axpb_simd_m_mnm<$21>: ax+c inner loop begin
# 0 "" 2
#NO_APP
	testq	%rdi, %rdi
	jle	.L590
	cmpq	$2, %rdi
	jle	.L592
	movl	$1, %r8d
.L588:
	movq	%rsi, %rax
	.p2align 4,,10
	.p2align 3
.L587:
	vmovaps	%zmm2, %zmm0
	vfmadd132ps	(%rax), %zmm1, %zmm0
	addq	$64, %rax
	vfmadd132ps	%zmm2, %zmm1, %zmm0
	vmovups	%zmm0, -64(%rax)
	cmpq	%rdx, %rax
	jne	.L587
	leaq	1(%r8), %rcx
	addq	$2, %r8
	cmpq	%r8, %r11
	jg	.L588
	.p2align 4,,10
	.p2align 3
.L591:
	movq	%rsi, %rax
	.p2align 4,,10
	.p2align 3
.L589:
	vmovaps	%zmm2, %zmm0
	vfmadd132ps	(%rax), %zmm1, %zmm0
	addq	$64, %rax
	vmovups	%zmm0, -64(%rax)
	cmpq	%rdx, %rax
	jne	.L589
	incq	%rcx
	cmpq	%rcx, %rdi
	jg	.L591
.L590:
#APP
# 261 "axpb.cc" 1
	# axpb_simd_m_mnm<$21>: ax+c inner loop end
# 0 "" 2
#NO_APP
	addq	$21, %r9
	addq	$1344, %rsi
	addq	$1344, %rdx
	cmpq	%r9, %r10
	jg	.L585
.L593:
	xorl	%eax, %eax
	vzeroupper
	leave
	.cfi_remember_state
	.cfi_def_cfa 7, 8
	ret
.L592:
	.cfi_restore_state
	xorl	%ecx, %ecx
	jmp	.L591
.L599:
	leaq	.LC68(%rip), %rcx
	movl	$251, %edx
	leaq	.LC1(%rip), %rsi
	leaq	.LC8(%rip), %rdi
	call	__assert_fail@PLT
.L600:
	leaq	.LC68(%rip), %rcx
	movl	$252, %edx
	leaq	.LC1(%rip), %rsi
	leaq	.LC4(%rip), %rdi
	call	__assert_fail@PLT
	.cfi_endproc
.LFE5777:
	.size	_Z15axpb_simd_m_mnmILi21EEl14axpb_options_tfPff, .-_Z15axpb_simd_m_mnmILi21EEl14axpb_options_tfPff
	.section	.rodata._Z11axpb_simd_cILi21EEl14axpb_options_tfPff.str1.8,"aMS",@progbits,1
	.align 8
.LC69:
	.string	"long int axpb_simd_c(axpb_options_t, float, float*, float) [with int c = 21]"
	.section	.text._Z11axpb_simd_cILi21EEl14axpb_options_tfPff,"axG",@progbits,_Z11axpb_simd_cILi21EEl14axpb_options_tfPff,comdat
	.p2align 4
	.weak	_Z11axpb_simd_cILi21EEl14axpb_options_tfPff
	.type	_Z11axpb_simd_cILi21EEl14axpb_options_tfPff, @function
_Z11axpb_simd_cILi21EEl14axpb_options_tfPff:
.LFB5776:
	.cfi_startproc
	endbr64
	pushq	%rbp
	.cfi_def_cfa_offset 16
	.cfi_offset 6, -16
	movq	%rsp, %rbp
	.cfi_def_cfa_register 6
	andq	$-64, %rsp
	cmpq	$336, 56(%rbp)
	jne	.L617
	movq	32(%rbp), %r8
	cmpq	$1, %r8
	jne	.L618
	movq	64(%rbp), %rsi
#APP
# 153 "axpb.cc" 1
	# axpb_simd_c<$21>: ax+c loop begin
# 0 "" 2
#NO_APP
	testq	%rsi, %rsi
	jle	.L609
	vbroadcastss	%xmm0, %zmm2
	vbroadcastss	%xmm1, %zmm1
	leaq	-1(%rsi), %r9
	cmpq	$2, %rsi
	jle	.L611
	leaq	1344(%rdi), %rdx
.L607:
	movq	%rdi, %rax
	.p2align 4,,10
	.p2align 3
.L606:
	vmovaps	%zmm2, %zmm0
	vfmadd132ps	(%rax), %zmm1, %zmm0
	addq	$64, %rax
	vfmadd132ps	%zmm2, %zmm1, %zmm0
	vmovups	%zmm0, -64(%rax)
	cmpq	%rdx, %rax
	jne	.L606
	leaq	1(%r8), %rcx
	addq	$2, %r8
	cmpq	%r8, %r9
	jg	.L607
	.p2align 4,,10
	.p2align 3
.L610:
	movq	%rdi, %rax
	.p2align 4,,10
	.p2align 3
.L608:
	vmovaps	%zmm2, %zmm0
	vfmadd132ps	(%rax), %zmm1, %zmm0
	addq	$64, %rax
	vmovups	%zmm0, -64(%rax)
	cmpq	%rdx, %rax
	jne	.L608
	incq	%rcx
	cmpq	%rcx, %rsi
	jg	.L610
	vzeroupper
.L609:
#APP
# 159 "axpb.cc" 1
	# axpb_simd_c<$21>: ax+c loop end
# 0 "" 2
#NO_APP
	xorl	%eax, %eax
	leave
	.cfi_remember_state
	.cfi_def_cfa 7, 8
	ret
.L611:
	.cfi_restore_state
	xorl	%ecx, %ecx
	leaq	1344(%rdi), %rdx
	jmp	.L610
.L617:
	leaq	.LC69(%rip), %rcx
	movl	$149, %edx
	leaq	.LC1(%rip), %rsi
	leaq	.LC10(%rip), %rdi
	call	__assert_fail@PLT
.L618:
	leaq	.LC69(%rip), %rcx
	movl	$150, %edx
	leaq	.LC1(%rip), %rsi
	leaq	.LC4(%rip), %rdi
	call	__assert_fail@PLT
	.cfi_endproc
.LFE5776:
	.size	_Z11axpb_simd_cILi21EEl14axpb_options_tfPff, .-_Z11axpb_simd_cILi21EEl14axpb_options_tfPff
	.section	.rodata._Z24axpb_simd_parallel_m_mnmILi22EEl14axpb_options_tfPff.str1.8,"aMS",@progbits,1
	.align 8
.LC70:
	.string	"long int axpb_simd_parallel_m_mnm(axpb_options_t, float, float*, float) [with int c = 22]"
	.section	.text._Z24axpb_simd_parallel_m_mnmILi22EEl14axpb_options_tfPff,"axG",@progbits,_Z24axpb_simd_parallel_m_mnmILi22EEl14axpb_options_tfPff,comdat
	.p2align 4
	.weak	_Z24axpb_simd_parallel_m_mnmILi22EEl14axpb_options_tfPff
	.type	_Z24axpb_simd_parallel_m_mnmILi22EEl14axpb_options_tfPff, @function
_Z24axpb_simd_parallel_m_mnmILi22EEl14axpb_options_tfPff:
.LFB5781:
	.cfi_startproc
	endbr64
	pushq	%rax
	.cfi_def_cfa_offset 16
	popq	%rax
	.cfi_def_cfa_offset 8
	leaq	.LC70(%rip), %rcx
	movl	$287, %edx
	leaq	.LC1(%rip), %rsi
	leaq	.LC6(%rip), %rdi
	subq	$8, %rsp
	.cfi_def_cfa_offset 16
	call	__assert_fail@PLT
	.cfi_endproc
.LFE5781:
	.size	_Z24axpb_simd_parallel_m_mnmILi22EEl14axpb_options_tfPff, .-_Z24axpb_simd_parallel_m_mnmILi22EEl14axpb_options_tfPff
	.section	.rodata._Z15axpb_simd_m_mnmILi22EEl14axpb_options_tfPff.str1.8,"aMS",@progbits,1
	.align 8
.LC71:
	.string	"long int axpb_simd_m_mnm(axpb_options_t, float, float*, float) [with int c = 22]"
	.section	.text._Z15axpb_simd_m_mnmILi22EEl14axpb_options_tfPff,"axG",@progbits,_Z15axpb_simd_m_mnmILi22EEl14axpb_options_tfPff,comdat
	.p2align 4
	.weak	_Z15axpb_simd_m_mnmILi22EEl14axpb_options_tfPff
	.type	_Z15axpb_simd_m_mnmILi22EEl14axpb_options_tfPff, @function
_Z15axpb_simd_m_mnmILi22EEl14axpb_options_tfPff:
.LFB5780:
	.cfi_startproc
	endbr64
	pushq	%rbp
	.cfi_def_cfa_offset 16
	.cfi_offset 6, -16
	movabsq	$3353953467947191203, %rdx
	movq	%rdi, %rsi
	movq	%rsp, %rbp
	.cfi_def_cfa_register 6
	movq	56(%rbp), %rcx
	movq	64(%rbp), %rdi
	movq	%rcx, %rax
	imulq	%rdx
	andq	$-64, %rsp
	movq	%rdx, %rax
	movq	%rcx, %rdx
	sarq	$6, %rax
	sarq	$63, %rdx
	subq	%rdx, %rax
	imulq	$352, %rax, %rax
	cmpq	%rax, %rcx
	jne	.L641
	cmpq	$1, 32(%rbp)
	jne	.L642
	testq	%rcx, %rcx
	leaq	15(%rcx), %r10
	cmovns	%rcx, %r10
	leaq	1408(%rsi), %rdx
	sarq	$4, %r10
	xorl	%r9d, %r9d
	vbroadcastss	%xmm0, %zmm2
	vbroadcastss	%xmm1, %zmm1
	leaq	-1(%rdi), %r11
	cmpq	$15, %rcx
	jle	.L635
.L627:
#APP
# 255 "axpb.cc" 1
	# axpb_simd_m_mnm<$22>: ax+c inner loop begin
# 0 "" 2
#NO_APP
	testq	%rdi, %rdi
	jle	.L632
	cmpq	$2, %rdi
	jle	.L634
	movl	$1, %r8d
.L630:
	movq	%rsi, %rax
	.p2align 4,,10
	.p2align 3
.L629:
	vmovaps	%zmm2, %zmm0
	vfmadd132ps	(%rax), %zmm1, %zmm0
	addq	$64, %rax
	vfmadd132ps	%zmm2, %zmm1, %zmm0
	vmovups	%zmm0, -64(%rax)
	cmpq	%rdx, %rax
	jne	.L629
	leaq	1(%r8), %rcx
	addq	$2, %r8
	cmpq	%r8, %r11
	jg	.L630
	.p2align 4,,10
	.p2align 3
.L633:
	movq	%rsi, %rax
	.p2align 4,,10
	.p2align 3
.L631:
	vmovaps	%zmm2, %zmm0
	vfmadd132ps	(%rax), %zmm1, %zmm0
	addq	$64, %rax
	vmovups	%zmm0, -64(%rax)
	cmpq	%rdx, %rax
	jne	.L631
	incq	%rcx
	cmpq	%rcx, %rdi
	jg	.L633
.L632:
#APP
# 261 "axpb.cc" 1
	# axpb_simd_m_mnm<$22>: ax+c inner loop end
# 0 "" 2
#NO_APP
	addq	$22, %r9
	addq	$1408, %rsi
	addq	$1408, %rdx
	cmpq	%r9, %r10
	jg	.L627
.L635:
	xorl	%eax, %eax
	vzeroupper
	leave
	.cfi_remember_state
	.cfi_def_cfa 7, 8
	ret
.L634:
	.cfi_restore_state
	xorl	%ecx, %ecx
	jmp	.L633
.L641:
	leaq	.LC71(%rip), %rcx
	movl	$251, %edx
	leaq	.LC1(%rip), %rsi
	leaq	.LC8(%rip), %rdi
	call	__assert_fail@PLT
.L642:
	leaq	.LC71(%rip), %rcx
	movl	$252, %edx
	leaq	.LC1(%rip), %rsi
	leaq	.LC4(%rip), %rdi
	call	__assert_fail@PLT
	.cfi_endproc
.LFE5780:
	.size	_Z15axpb_simd_m_mnmILi22EEl14axpb_options_tfPff, .-_Z15axpb_simd_m_mnmILi22EEl14axpb_options_tfPff
	.section	.rodata._Z11axpb_simd_cILi22EEl14axpb_options_tfPff.str1.8,"aMS",@progbits,1
	.align 8
.LC72:
	.string	"long int axpb_simd_c(axpb_options_t, float, float*, float) [with int c = 22]"
	.section	.text._Z11axpb_simd_cILi22EEl14axpb_options_tfPff,"axG",@progbits,_Z11axpb_simd_cILi22EEl14axpb_options_tfPff,comdat
	.p2align 4
	.weak	_Z11axpb_simd_cILi22EEl14axpb_options_tfPff
	.type	_Z11axpb_simd_cILi22EEl14axpb_options_tfPff, @function
_Z11axpb_simd_cILi22EEl14axpb_options_tfPff:
.LFB5779:
	.cfi_startproc
	endbr64
	pushq	%rbp
	.cfi_def_cfa_offset 16
	.cfi_offset 6, -16
	movq	%rsp, %rbp
	.cfi_def_cfa_register 6
	andq	$-64, %rsp
	cmpq	$352, 56(%rbp)
	jne	.L659
	movq	32(%rbp), %r8
	cmpq	$1, %r8
	jne	.L660
	movq	64(%rbp), %rsi
#APP
# 153 "axpb.cc" 1
	# axpb_simd_c<$22>: ax+c loop begin
# 0 "" 2
#NO_APP
	testq	%rsi, %rsi
	jle	.L651
	vbroadcastss	%xmm0, %zmm2
	vbroadcastss	%xmm1, %zmm1
	leaq	-1(%rsi), %r9
	cmpq	$2, %rsi
	jle	.L653
	leaq	1408(%rdi), %rdx
.L649:
	movq	%rdi, %rax
	.p2align 4,,10
	.p2align 3
.L648:
	vmovaps	%zmm2, %zmm0
	vfmadd132ps	(%rax), %zmm1, %zmm0
	addq	$64, %rax
	vfmadd132ps	%zmm2, %zmm1, %zmm0
	vmovups	%zmm0, -64(%rax)
	cmpq	%rdx, %rax
	jne	.L648
	leaq	1(%r8), %rcx
	addq	$2, %r8
	cmpq	%r8, %r9
	jg	.L649
	.p2align 4,,10
	.p2align 3
.L652:
	movq	%rdi, %rax
	.p2align 4,,10
	.p2align 3
.L650:
	vmovaps	%zmm2, %zmm0
	vfmadd132ps	(%rax), %zmm1, %zmm0
	addq	$64, %rax
	vmovups	%zmm0, -64(%rax)
	cmpq	%rdx, %rax
	jne	.L650
	incq	%rcx
	cmpq	%rcx, %rsi
	jg	.L652
	vzeroupper
.L651:
#APP
# 159 "axpb.cc" 1
	# axpb_simd_c<$22>: ax+c loop end
# 0 "" 2
#NO_APP
	xorl	%eax, %eax
	leave
	.cfi_remember_state
	.cfi_def_cfa 7, 8
	ret
.L653:
	.cfi_restore_state
	xorl	%ecx, %ecx
	leaq	1408(%rdi), %rdx
	jmp	.L652
.L659:
	leaq	.LC72(%rip), %rcx
	movl	$149, %edx
	leaq	.LC1(%rip), %rsi
	leaq	.LC10(%rip), %rdi
	call	__assert_fail@PLT
.L660:
	leaq	.LC72(%rip), %rcx
	movl	$150, %edx
	leaq	.LC1(%rip), %rsi
	leaq	.LC4(%rip), %rdi
	call	__assert_fail@PLT
	.cfi_endproc
.LFE5779:
	.size	_Z11axpb_simd_cILi22EEl14axpb_options_tfPff, .-_Z11axpb_simd_cILi22EEl14axpb_options_tfPff
	.section	.rodata._Z24axpb_simd_parallel_m_mnmILi23EEl14axpb_options_tfPff.str1.8,"aMS",@progbits,1
	.align 8
.LC73:
	.string	"long int axpb_simd_parallel_m_mnm(axpb_options_t, float, float*, float) [with int c = 23]"
	.section	.text._Z24axpb_simd_parallel_m_mnmILi23EEl14axpb_options_tfPff,"axG",@progbits,_Z24axpb_simd_parallel_m_mnmILi23EEl14axpb_options_tfPff,comdat
	.p2align 4
	.weak	_Z24axpb_simd_parallel_m_mnmILi23EEl14axpb_options_tfPff
	.type	_Z24axpb_simd_parallel_m_mnmILi23EEl14axpb_options_tfPff, @function
_Z24axpb_simd_parallel_m_mnmILi23EEl14axpb_options_tfPff:
.LFB5784:
	.cfi_startproc
	endbr64
	pushq	%rax
	.cfi_def_cfa_offset 16
	popq	%rax
	.cfi_def_cfa_offset 8
	leaq	.LC73(%rip), %rcx
	movl	$287, %edx
	leaq	.LC1(%rip), %rsi
	leaq	.LC6(%rip), %rdi
	subq	$8, %rsp
	.cfi_def_cfa_offset 16
	call	__assert_fail@PLT
	.cfi_endproc
.LFE5784:
	.size	_Z24axpb_simd_parallel_m_mnmILi23EEl14axpb_options_tfPff, .-_Z24axpb_simd_parallel_m_mnmILi23EEl14axpb_options_tfPff
	.section	.rodata._Z15axpb_simd_m_mnmILi23EEl14axpb_options_tfPff.str1.8,"aMS",@progbits,1
	.align 8
.LC74:
	.string	"long int axpb_simd_m_mnm(axpb_options_t, float, float*, float) [with int c = 23]"
	.section	.text._Z15axpb_simd_m_mnmILi23EEl14axpb_options_tfPff,"axG",@progbits,_Z15axpb_simd_m_mnmILi23EEl14axpb_options_tfPff,comdat
	.p2align 4
	.weak	_Z15axpb_simd_m_mnmILi23EEl14axpb_options_tfPff
	.type	_Z15axpb_simd_m_mnmILi23EEl14axpb_options_tfPff, @function
_Z15axpb_simd_m_mnmILi23EEl14axpb_options_tfPff:
.LFB5783:
	.cfi_startproc
	endbr64
	pushq	%rbp
	.cfi_def_cfa_offset 16
	.cfi_offset 6, -16
	movabsq	$-5614226457215950491, %rdx
	movq	%rdi, %rsi
	movq	%rsp, %rbp
	.cfi_def_cfa_register 6
	movq	56(%rbp), %rcx
	movq	64(%rbp), %rdi
	movq	%rcx, %rax
	imulq	%rdx
	andq	$-64, %rsp
	leaq	(%rdx,%rcx), %rax
	movq	%rcx, %rdx
	sarq	$8, %rax
	sarq	$63, %rdx
	subq	%rdx, %rax
	imulq	$368, %rax, %rax
	cmpq	%rax, %rcx
	jne	.L683
	cmpq	$1, 32(%rbp)
	jne	.L684
	testq	%rcx, %rcx
	leaq	15(%rcx), %r10
	cmovns	%rcx, %r10
	leaq	1472(%rsi), %rdx
	sarq	$4, %r10
	xorl	%r9d, %r9d
	vbroadcastss	%xmm0, %zmm2
	vbroadcastss	%xmm1, %zmm1
	leaq	-1(%rdi), %r11
	cmpq	$15, %rcx
	jle	.L677
.L669:
#APP
# 255 "axpb.cc" 1
	# axpb_simd_m_mnm<$23>: ax+c inner loop begin
# 0 "" 2
#NO_APP
	testq	%rdi, %rdi
	jle	.L674
	cmpq	$2, %rdi
	jle	.L676
	movl	$1, %r8d
.L672:
	movq	%rsi, %rax
	.p2align 4,,10
	.p2align 3
.L671:
	vmovaps	%zmm2, %zmm0
	vfmadd132ps	(%rax), %zmm1, %zmm0
	addq	$64, %rax
	vfmadd132ps	%zmm2, %zmm1, %zmm0
	vmovups	%zmm0, -64(%rax)
	cmpq	%rdx, %rax
	jne	.L671
	leaq	1(%r8), %rcx
	addq	$2, %r8
	cmpq	%r8, %r11
	jg	.L672
	.p2align 4,,10
	.p2align 3
.L675:
	movq	%rsi, %rax
	.p2align 4,,10
	.p2align 3
.L673:
	vmovaps	%zmm2, %zmm0
	vfmadd132ps	(%rax), %zmm1, %zmm0
	addq	$64, %rax
	vmovups	%zmm0, -64(%rax)
	cmpq	%rdx, %rax
	jne	.L673
	incq	%rcx
	cmpq	%rcx, %rdi
	jg	.L675
.L674:
#APP
# 261 "axpb.cc" 1
	# axpb_simd_m_mnm<$23>: ax+c inner loop end
# 0 "" 2
#NO_APP
	addq	$23, %r9
	addq	$1472, %rsi
	addq	$1472, %rdx
	cmpq	%r9, %r10
	jg	.L669
.L677:
	xorl	%eax, %eax
	vzeroupper
	leave
	.cfi_remember_state
	.cfi_def_cfa 7, 8
	ret
.L676:
	.cfi_restore_state
	xorl	%ecx, %ecx
	jmp	.L675
.L683:
	leaq	.LC74(%rip), %rcx
	movl	$251, %edx
	leaq	.LC1(%rip), %rsi
	leaq	.LC8(%rip), %rdi
	call	__assert_fail@PLT
.L684:
	leaq	.LC74(%rip), %rcx
	movl	$252, %edx
	leaq	.LC1(%rip), %rsi
	leaq	.LC4(%rip), %rdi
	call	__assert_fail@PLT
	.cfi_endproc
.LFE5783:
	.size	_Z15axpb_simd_m_mnmILi23EEl14axpb_options_tfPff, .-_Z15axpb_simd_m_mnmILi23EEl14axpb_options_tfPff
	.section	.rodata._Z11axpb_simd_cILi23EEl14axpb_options_tfPff.str1.8,"aMS",@progbits,1
	.align 8
.LC75:
	.string	"long int axpb_simd_c(axpb_options_t, float, float*, float) [with int c = 23]"
	.section	.text._Z11axpb_simd_cILi23EEl14axpb_options_tfPff,"axG",@progbits,_Z11axpb_simd_cILi23EEl14axpb_options_tfPff,comdat
	.p2align 4
	.weak	_Z11axpb_simd_cILi23EEl14axpb_options_tfPff
	.type	_Z11axpb_simd_cILi23EEl14axpb_options_tfPff, @function
_Z11axpb_simd_cILi23EEl14axpb_options_tfPff:
.LFB5782:
	.cfi_startproc
	endbr64
	pushq	%rbp
	.cfi_def_cfa_offset 16
	.cfi_offset 6, -16
	movq	%rsp, %rbp
	.cfi_def_cfa_register 6
	andq	$-64, %rsp
	cmpq	$368, 56(%rbp)
	jne	.L701
	movq	32(%rbp), %r8
	cmpq	$1, %r8
	jne	.L702
	movq	64(%rbp), %rsi
#APP
# 153 "axpb.cc" 1
	# axpb_simd_c<$23>: ax+c loop begin
# 0 "" 2
#NO_APP
	testq	%rsi, %rsi
	jle	.L693
	vbroadcastss	%xmm0, %zmm2
	vbroadcastss	%xmm1, %zmm1
	leaq	-1(%rsi), %r9
	cmpq	$2, %rsi
	jle	.L695
	leaq	1472(%rdi), %rdx
.L691:
	movq	%rdi, %rax
	.p2align 4,,10
	.p2align 3
.L690:
	vmovaps	%zmm2, %zmm0
	vfmadd132ps	(%rax), %zmm1, %zmm0
	addq	$64, %rax
	vfmadd132ps	%zmm2, %zmm1, %zmm0
	vmovups	%zmm0, -64(%rax)
	cmpq	%rdx, %rax
	jne	.L690
	leaq	1(%r8), %rcx
	addq	$2, %r8
	cmpq	%r8, %r9
	jg	.L691
	.p2align 4,,10
	.p2align 3
.L694:
	movq	%rdi, %rax
	.p2align 4,,10
	.p2align 3
.L692:
	vmovaps	%zmm2, %zmm0
	vfmadd132ps	(%rax), %zmm1, %zmm0
	addq	$64, %rax
	vmovups	%zmm0, -64(%rax)
	cmpq	%rdx, %rax
	jne	.L692
	incq	%rcx
	cmpq	%rcx, %rsi
	jg	.L694
	vzeroupper
.L693:
#APP
# 159 "axpb.cc" 1
	# axpb_simd_c<$23>: ax+c loop end
# 0 "" 2
#NO_APP
	xorl	%eax, %eax
	leave
	.cfi_remember_state
	.cfi_def_cfa 7, 8
	ret
.L695:
	.cfi_restore_state
	xorl	%ecx, %ecx
	leaq	1472(%rdi), %rdx
	jmp	.L694
.L701:
	leaq	.LC75(%rip), %rcx
	movl	$149, %edx
	leaq	.LC1(%rip), %rsi
	leaq	.LC10(%rip), %rdi
	call	__assert_fail@PLT
.L702:
	leaq	.LC75(%rip), %rcx
	movl	$150, %edx
	leaq	.LC1(%rip), %rsi
	leaq	.LC4(%rip), %rdi
	call	__assert_fail@PLT
	.cfi_endproc
.LFE5782:
	.size	_Z11axpb_simd_cILi23EEl14axpb_options_tfPff, .-_Z11axpb_simd_cILi23EEl14axpb_options_tfPff
	.section	.rodata._Z24axpb_simd_parallel_m_mnmILi24EEl14axpb_options_tfPff.str1.8,"aMS",@progbits,1
	.align 8
.LC76:
	.string	"long int axpb_simd_parallel_m_mnm(axpb_options_t, float, float*, float) [with int c = 24]"
	.section	.text._Z24axpb_simd_parallel_m_mnmILi24EEl14axpb_options_tfPff,"axG",@progbits,_Z24axpb_simd_parallel_m_mnmILi24EEl14axpb_options_tfPff,comdat
	.p2align 4
	.weak	_Z24axpb_simd_parallel_m_mnmILi24EEl14axpb_options_tfPff
	.type	_Z24axpb_simd_parallel_m_mnmILi24EEl14axpb_options_tfPff, @function
_Z24axpb_simd_parallel_m_mnmILi24EEl14axpb_options_tfPff:
.LFB5787:
	.cfi_startproc
	endbr64
	pushq	%rax
	.cfi_def_cfa_offset 16
	popq	%rax
	.cfi_def_cfa_offset 8
	leaq	.LC76(%rip), %rcx
	movl	$287, %edx
	leaq	.LC1(%rip), %rsi
	leaq	.LC6(%rip), %rdi
	subq	$8, %rsp
	.cfi_def_cfa_offset 16
	call	__assert_fail@PLT
	.cfi_endproc
.LFE5787:
	.size	_Z24axpb_simd_parallel_m_mnmILi24EEl14axpb_options_tfPff, .-_Z24axpb_simd_parallel_m_mnmILi24EEl14axpb_options_tfPff
	.section	.rodata._Z15axpb_simd_m_mnmILi24EEl14axpb_options_tfPff.str1.8,"aMS",@progbits,1
	.align 8
.LC77:
	.string	"long int axpb_simd_m_mnm(axpb_options_t, float, float*, float) [with int c = 24]"
	.section	.text._Z15axpb_simd_m_mnmILi24EEl14axpb_options_tfPff,"axG",@progbits,_Z15axpb_simd_m_mnmILi24EEl14axpb_options_tfPff,comdat
	.p2align 4
	.weak	_Z15axpb_simd_m_mnmILi24EEl14axpb_options_tfPff
	.type	_Z15axpb_simd_m_mnmILi24EEl14axpb_options_tfPff, @function
_Z15axpb_simd_m_mnmILi24EEl14axpb_options_tfPff:
.LFB5786:
	.cfi_startproc
	endbr64
	pushq	%rbp
	.cfi_def_cfa_offset 16
	.cfi_offset 6, -16
	movabsq	$3074457345618258603, %rdx
	movq	%rdi, %rsi
	movq	%rsp, %rbp
	.cfi_def_cfa_register 6
	movq	56(%rbp), %rcx
	movq	64(%rbp), %rdi
	movq	%rcx, %rax
	imulq	%rdx
	andq	$-64, %rsp
	movq	%rdx, %rax
	movq	%rcx, %rdx
	sarq	$6, %rax
	sarq	$63, %rdx
	subq	%rdx, %rax
	leaq	(%rax,%rax,2), %rax
	salq	$7, %rax
	cmpq	%rax, %rcx
	jne	.L725
	cmpq	$1, 32(%rbp)
	jne	.L726
	testq	%rcx, %rcx
	leaq	15(%rcx), %r10
	cmovns	%rcx, %r10
	leaq	1536(%rsi), %rdx
	sarq	$4, %r10
	xorl	%r9d, %r9d
	vbroadcastss	%xmm0, %zmm2
	vbroadcastss	%xmm1, %zmm1
	leaq	-1(%rdi), %r11
	cmpq	$15, %rcx
	jle	.L719
.L711:
#APP
# 255 "axpb.cc" 1
	# axpb_simd_m_mnm<$24>: ax+c inner loop begin
# 0 "" 2
#NO_APP
	testq	%rdi, %rdi
	jle	.L716
	cmpq	$2, %rdi
	jle	.L718
	movl	$1, %r8d
.L714:
	movq	%rsi, %rax
	.p2align 4,,10
	.p2align 3
.L713:
	vmovaps	%zmm2, %zmm0
	vfmadd132ps	(%rax), %zmm1, %zmm0
	addq	$64, %rax
	vfmadd132ps	%zmm2, %zmm1, %zmm0
	vmovups	%zmm0, -64(%rax)
	cmpq	%rdx, %rax
	jne	.L713
	leaq	1(%r8), %rcx
	addq	$2, %r8
	cmpq	%r8, %r11
	jg	.L714
	.p2align 4,,10
	.p2align 3
.L717:
	movq	%rsi, %rax
	.p2align 4,,10
	.p2align 3
.L715:
	vmovaps	%zmm2, %zmm0
	vfmadd132ps	(%rax), %zmm1, %zmm0
	addq	$64, %rax
	vmovups	%zmm0, -64(%rax)
	cmpq	%rdx, %rax
	jne	.L715
	incq	%rcx
	cmpq	%rcx, %rdi
	jg	.L717
.L716:
#APP
# 261 "axpb.cc" 1
	# axpb_simd_m_mnm<$24>: ax+c inner loop end
# 0 "" 2
#NO_APP
	addq	$24, %r9
	addq	$1536, %rsi
	addq	$1536, %rdx
	cmpq	%r9, %r10
	jg	.L711
.L719:
	xorl	%eax, %eax
	vzeroupper
	leave
	.cfi_remember_state
	.cfi_def_cfa 7, 8
	ret
.L718:
	.cfi_restore_state
	xorl	%ecx, %ecx
	jmp	.L717
.L725:
	leaq	.LC77(%rip), %rcx
	movl	$251, %edx
	leaq	.LC1(%rip), %rsi
	leaq	.LC8(%rip), %rdi
	call	__assert_fail@PLT
.L726:
	leaq	.LC77(%rip), %rcx
	movl	$252, %edx
	leaq	.LC1(%rip), %rsi
	leaq	.LC4(%rip), %rdi
	call	__assert_fail@PLT
	.cfi_endproc
.LFE5786:
	.size	_Z15axpb_simd_m_mnmILi24EEl14axpb_options_tfPff, .-_Z15axpb_simd_m_mnmILi24EEl14axpb_options_tfPff
	.section	.rodata._Z11axpb_simd_cILi24EEl14axpb_options_tfPff.str1.8,"aMS",@progbits,1
	.align 8
.LC78:
	.string	"long int axpb_simd_c(axpb_options_t, float, float*, float) [with int c = 24]"
	.section	.text._Z11axpb_simd_cILi24EEl14axpb_options_tfPff,"axG",@progbits,_Z11axpb_simd_cILi24EEl14axpb_options_tfPff,comdat
	.p2align 4
	.weak	_Z11axpb_simd_cILi24EEl14axpb_options_tfPff
	.type	_Z11axpb_simd_cILi24EEl14axpb_options_tfPff, @function
_Z11axpb_simd_cILi24EEl14axpb_options_tfPff:
.LFB5785:
	.cfi_startproc
	endbr64
	pushq	%rbp
	.cfi_def_cfa_offset 16
	.cfi_offset 6, -16
	movq	%rsp, %rbp
	.cfi_def_cfa_register 6
	andq	$-64, %rsp
	cmpq	$384, 56(%rbp)
	jne	.L743
	movq	32(%rbp), %r8
	cmpq	$1, %r8
	jne	.L744
	movq	64(%rbp), %rsi
#APP
# 153 "axpb.cc" 1
	# axpb_simd_c<$24>: ax+c loop begin
# 0 "" 2
#NO_APP
	testq	%rsi, %rsi
	jle	.L735
	vbroadcastss	%xmm0, %zmm2
	vbroadcastss	%xmm1, %zmm1
	leaq	-1(%rsi), %r9
	cmpq	$2, %rsi
	jle	.L737
	leaq	1536(%rdi), %rdx
.L733:
	movq	%rdi, %rax
	.p2align 4,,10
	.p2align 3
.L732:
	vmovaps	%zmm2, %zmm0
	vfmadd132ps	(%rax), %zmm1, %zmm0
	addq	$64, %rax
	vfmadd132ps	%zmm2, %zmm1, %zmm0
	vmovups	%zmm0, -64(%rax)
	cmpq	%rdx, %rax
	jne	.L732
	leaq	1(%r8), %rcx
	addq	$2, %r8
	cmpq	%r8, %r9
	jg	.L733
	.p2align 4,,10
	.p2align 3
.L736:
	movq	%rdi, %rax
	.p2align 4,,10
	.p2align 3
.L734:
	vmovaps	%zmm2, %zmm0
	vfmadd132ps	(%rax), %zmm1, %zmm0
	addq	$64, %rax
	vmovups	%zmm0, -64(%rax)
	cmpq	%rdx, %rax
	jne	.L734
	incq	%rcx
	cmpq	%rcx, %rsi
	jg	.L736
	vzeroupper
.L735:
#APP
# 159 "axpb.cc" 1
	# axpb_simd_c<$24>: ax+c loop end
# 0 "" 2
#NO_APP
	xorl	%eax, %eax
	leave
	.cfi_remember_state
	.cfi_def_cfa 7, 8
	ret
.L737:
	.cfi_restore_state
	xorl	%ecx, %ecx
	leaq	1536(%rdi), %rdx
	jmp	.L736
.L743:
	leaq	.LC78(%rip), %rcx
	movl	$149, %edx
	leaq	.LC1(%rip), %rsi
	leaq	.LC10(%rip), %rdi
	call	__assert_fail@PLT
.L744:
	leaq	.LC78(%rip), %rcx
	movl	$150, %edx
	leaq	.LC1(%rip), %rsi
	leaq	.LC4(%rip), %rdi
	call	__assert_fail@PLT
	.cfi_endproc
.LFE5785:
	.size	_Z11axpb_simd_cILi24EEl14axpb_options_tfPff, .-_Z11axpb_simd_cILi24EEl14axpb_options_tfPff
	.section	.rodata._Z24axpb_simd_parallel_m_mnmILi25EEl14axpb_options_tfPff.str1.8,"aMS",@progbits,1
	.align 8
.LC79:
	.string	"long int axpb_simd_parallel_m_mnm(axpb_options_t, float, float*, float) [with int c = 25]"
	.section	.text._Z24axpb_simd_parallel_m_mnmILi25EEl14axpb_options_tfPff,"axG",@progbits,_Z24axpb_simd_parallel_m_mnmILi25EEl14axpb_options_tfPff,comdat
	.p2align 4
	.weak	_Z24axpb_simd_parallel_m_mnmILi25EEl14axpb_options_tfPff
	.type	_Z24axpb_simd_parallel_m_mnmILi25EEl14axpb_options_tfPff, @function
_Z24axpb_simd_parallel_m_mnmILi25EEl14axpb_options_tfPff:
.LFB5790:
	.cfi_startproc
	endbr64
	pushq	%rax
	.cfi_def_cfa_offset 16
	popq	%rax
	.cfi_def_cfa_offset 8
	leaq	.LC79(%rip), %rcx
	movl	$287, %edx
	leaq	.LC1(%rip), %rsi
	leaq	.LC6(%rip), %rdi
	subq	$8, %rsp
	.cfi_def_cfa_offset 16
	call	__assert_fail@PLT
	.cfi_endproc
.LFE5790:
	.size	_Z24axpb_simd_parallel_m_mnmILi25EEl14axpb_options_tfPff, .-_Z24axpb_simd_parallel_m_mnmILi25EEl14axpb_options_tfPff
	.section	.rodata._Z15axpb_simd_m_mnmILi25EEl14axpb_options_tfPff.str1.8,"aMS",@progbits,1
	.align 8
.LC80:
	.string	"long int axpb_simd_m_mnm(axpb_options_t, float, float*, float) [with int c = 25]"
	.section	.text._Z15axpb_simd_m_mnmILi25EEl14axpb_options_tfPff,"axG",@progbits,_Z15axpb_simd_m_mnmILi25EEl14axpb_options_tfPff,comdat
	.p2align 4
	.weak	_Z15axpb_simd_m_mnmILi25EEl14axpb_options_tfPff
	.type	_Z15axpb_simd_m_mnmILi25EEl14axpb_options_tfPff, @function
_Z15axpb_simd_m_mnmILi25EEl14axpb_options_tfPff:
.LFB5789:
	.cfi_startproc
	endbr64
	pushq	%rbp
	.cfi_def_cfa_offset 16
	.cfi_offset 6, -16
	movabsq	$-6640827866535438581, %rdx
	movq	%rdi, %rsi
	movq	%rsp, %rbp
	.cfi_def_cfa_register 6
	movq	56(%rbp), %rcx
	movq	64(%rbp), %rdi
	movq	%rcx, %rax
	imulq	%rdx
	andq	$-64, %rsp
	leaq	(%rdx,%rcx), %rax
	movq	%rcx, %rdx
	sarq	$8, %rax
	sarq	$63, %rdx
	subq	%rdx, %rax
	imulq	$400, %rax, %rax
	cmpq	%rax, %rcx
	jne	.L767
	cmpq	$1, 32(%rbp)
	jne	.L768
	testq	%rcx, %rcx
	leaq	15(%rcx), %r10
	cmovns	%rcx, %r10
	leaq	1600(%rsi), %rdx
	sarq	$4, %r10
	xorl	%r9d, %r9d
	vbroadcastss	%xmm0, %zmm2
	vbroadcastss	%xmm1, %zmm1
	leaq	-1(%rdi), %r11
	cmpq	$15, %rcx
	jle	.L761
.L753:
#APP
# 255 "axpb.cc" 1
	# axpb_simd_m_mnm<$25>: ax+c inner loop begin
# 0 "" 2
#NO_APP
	testq	%rdi, %rdi
	jle	.L758
	cmpq	$2, %rdi
	jle	.L760
	movl	$1, %r8d
.L756:
	movq	%rsi, %rax
	.p2align 4,,10
	.p2align 3
.L755:
	vmovaps	%zmm2, %zmm0
	vfmadd132ps	(%rax), %zmm1, %zmm0
	addq	$64, %rax
	vfmadd132ps	%zmm2, %zmm1, %zmm0
	vmovups	%zmm0, -64(%rax)
	cmpq	%rdx, %rax
	jne	.L755
	leaq	1(%r8), %rcx
	addq	$2, %r8
	cmpq	%r8, %r11
	jg	.L756
	.p2align 4,,10
	.p2align 3
.L759:
	movq	%rsi, %rax
	.p2align 4,,10
	.p2align 3
.L757:
	vmovaps	%zmm2, %zmm0
	vfmadd132ps	(%rax), %zmm1, %zmm0
	addq	$64, %rax
	vmovups	%zmm0, -64(%rax)
	cmpq	%rdx, %rax
	jne	.L757
	incq	%rcx
	cmpq	%rcx, %rdi
	jg	.L759
.L758:
#APP
# 261 "axpb.cc" 1
	# axpb_simd_m_mnm<$25>: ax+c inner loop end
# 0 "" 2
#NO_APP
	addq	$25, %r9
	addq	$1600, %rsi
	addq	$1600, %rdx
	cmpq	%r9, %r10
	jg	.L753
.L761:
	xorl	%eax, %eax
	vzeroupper
	leave
	.cfi_remember_state
	.cfi_def_cfa 7, 8
	ret
.L760:
	.cfi_restore_state
	xorl	%ecx, %ecx
	jmp	.L759
.L767:
	leaq	.LC80(%rip), %rcx
	movl	$251, %edx
	leaq	.LC1(%rip), %rsi
	leaq	.LC8(%rip), %rdi
	call	__assert_fail@PLT
.L768:
	leaq	.LC80(%rip), %rcx
	movl	$252, %edx
	leaq	.LC1(%rip), %rsi
	leaq	.LC4(%rip), %rdi
	call	__assert_fail@PLT
	.cfi_endproc
.LFE5789:
	.size	_Z15axpb_simd_m_mnmILi25EEl14axpb_options_tfPff, .-_Z15axpb_simd_m_mnmILi25EEl14axpb_options_tfPff
	.section	.rodata._Z11axpb_simd_cILi25EEl14axpb_options_tfPff.str1.8,"aMS",@progbits,1
	.align 8
.LC81:
	.string	"long int axpb_simd_c(axpb_options_t, float, float*, float) [with int c = 25]"
	.section	.text._Z11axpb_simd_cILi25EEl14axpb_options_tfPff,"axG",@progbits,_Z11axpb_simd_cILi25EEl14axpb_options_tfPff,comdat
	.p2align 4
	.weak	_Z11axpb_simd_cILi25EEl14axpb_options_tfPff
	.type	_Z11axpb_simd_cILi25EEl14axpb_options_tfPff, @function
_Z11axpb_simd_cILi25EEl14axpb_options_tfPff:
.LFB5788:
	.cfi_startproc
	endbr64
	pushq	%rbp
	.cfi_def_cfa_offset 16
	.cfi_offset 6, -16
	movq	%rsp, %rbp
	.cfi_def_cfa_register 6
	andq	$-64, %rsp
	cmpq	$400, 56(%rbp)
	jne	.L785
	movq	32(%rbp), %r8
	cmpq	$1, %r8
	jne	.L786
	movq	64(%rbp), %rsi
#APP
# 153 "axpb.cc" 1
	# axpb_simd_c<$25>: ax+c loop begin
# 0 "" 2
#NO_APP
	testq	%rsi, %rsi
	jle	.L777
	vbroadcastss	%xmm0, %zmm2
	vbroadcastss	%xmm1, %zmm1
	leaq	-1(%rsi), %r9
	cmpq	$2, %rsi
	jle	.L779
	leaq	1600(%rdi), %rdx
.L775:
	movq	%rdi, %rax
	.p2align 4,,10
	.p2align 3
.L774:
	vmovaps	%zmm2, %zmm0
	vfmadd132ps	(%rax), %zmm1, %zmm0
	addq	$64, %rax
	vfmadd132ps	%zmm2, %zmm1, %zmm0
	vmovups	%zmm0, -64(%rax)
	cmpq	%rdx, %rax
	jne	.L774
	leaq	1(%r8), %rcx
	addq	$2, %r8
	cmpq	%r8, %r9
	jg	.L775
	.p2align 4,,10
	.p2align 3
.L778:
	movq	%rdi, %rax
	.p2align 4,,10
	.p2align 3
.L776:
	vmovaps	%zmm2, %zmm0
	vfmadd132ps	(%rax), %zmm1, %zmm0
	addq	$64, %rax
	vmovups	%zmm0, -64(%rax)
	cmpq	%rdx, %rax
	jne	.L776
	incq	%rcx
	cmpq	%rcx, %rsi
	jg	.L778
	vzeroupper
.L777:
#APP
# 159 "axpb.cc" 1
	# axpb_simd_c<$25>: ax+c loop end
# 0 "" 2
#NO_APP
	xorl	%eax, %eax
	leave
	.cfi_remember_state
	.cfi_def_cfa 7, 8
	ret
.L779:
	.cfi_restore_state
	xorl	%ecx, %ecx
	leaq	1600(%rdi), %rdx
	jmp	.L778
.L785:
	leaq	.LC81(%rip), %rcx
	movl	$149, %edx
	leaq	.LC1(%rip), %rsi
	leaq	.LC10(%rip), %rdi
	call	__assert_fail@PLT
.L786:
	leaq	.LC81(%rip), %rcx
	movl	$150, %edx
	leaq	.LC1(%rip), %rsi
	leaq	.LC4(%rip), %rdi
	call	__assert_fail@PLT
	.cfi_endproc
.LFE5788:
	.size	_Z11axpb_simd_cILi25EEl14axpb_options_tfPff, .-_Z11axpb_simd_cILi25EEl14axpb_options_tfPff
	.section	.rodata._Z24axpb_simd_parallel_m_mnmILi26EEl14axpb_options_tfPff.str1.8,"aMS",@progbits,1
	.align 8
.LC82:
	.string	"long int axpb_simd_parallel_m_mnm(axpb_options_t, float, float*, float) [with int c = 26]"
	.section	.text._Z24axpb_simd_parallel_m_mnmILi26EEl14axpb_options_tfPff,"axG",@progbits,_Z24axpb_simd_parallel_m_mnmILi26EEl14axpb_options_tfPff,comdat
	.p2align 4
	.weak	_Z24axpb_simd_parallel_m_mnmILi26EEl14axpb_options_tfPff
	.type	_Z24axpb_simd_parallel_m_mnmILi26EEl14axpb_options_tfPff, @function
_Z24axpb_simd_parallel_m_mnmILi26EEl14axpb_options_tfPff:
.LFB5793:
	.cfi_startproc
	endbr64
	pushq	%rax
	.cfi_def_cfa_offset 16
	popq	%rax
	.cfi_def_cfa_offset 8
	leaq	.LC82(%rip), %rcx
	movl	$287, %edx
	leaq	.LC1(%rip), %rsi
	leaq	.LC6(%rip), %rdi
	subq	$8, %rsp
	.cfi_def_cfa_offset 16
	call	__assert_fail@PLT
	.cfi_endproc
.LFE5793:
	.size	_Z24axpb_simd_parallel_m_mnmILi26EEl14axpb_options_tfPff, .-_Z24axpb_simd_parallel_m_mnmILi26EEl14axpb_options_tfPff
	.section	.rodata._Z15axpb_simd_m_mnmILi26EEl14axpb_options_tfPff.str1.8,"aMS",@progbits,1
	.align 8
.LC83:
	.string	"long int axpb_simd_m_mnm(axpb_options_t, float, float*, float) [with int c = 26]"
	.section	.text._Z15axpb_simd_m_mnmILi26EEl14axpb_options_tfPff,"axG",@progbits,_Z15axpb_simd_m_mnmILi26EEl14axpb_options_tfPff,comdat
	.p2align 4
	.weak	_Z15axpb_simd_m_mnmILi26EEl14axpb_options_tfPff
	.type	_Z15axpb_simd_m_mnmILi26EEl14axpb_options_tfPff, @function
_Z15axpb_simd_m_mnmILi26EEl14axpb_options_tfPff:
.LFB5792:
	.cfi_startproc
	endbr64
	pushq	%rbp
	.cfi_def_cfa_offset 16
	.cfi_offset 6, -16
	movabsq	$5675921253449092805, %rdx
	movq	%rdi, %rsi
	movq	%rsp, %rbp
	.cfi_def_cfa_register 6
	movq	56(%rbp), %rcx
	movq	64(%rbp), %rdi
	movq	%rcx, %rax
	imulq	%rdx
	andq	$-64, %rsp
	movq	%rdx, %rax
	movq	%rcx, %rdx
	sarq	$7, %rax
	sarq	$63, %rdx
	subq	%rdx, %rax
	imulq	$416, %rax, %rax
	cmpq	%rax, %rcx
	jne	.L809
	cmpq	$1, 32(%rbp)
	jne	.L810
	testq	%rcx, %rcx
	leaq	15(%rcx), %r10
	cmovns	%rcx, %r10
	leaq	1664(%rsi), %rdx
	sarq	$4, %r10
	xorl	%r9d, %r9d
	vbroadcastss	%xmm0, %zmm2
	vbroadcastss	%xmm1, %zmm1
	leaq	-1(%rdi), %r11
	cmpq	$15, %rcx
	jle	.L803
.L795:
#APP
# 255 "axpb.cc" 1
	# axpb_simd_m_mnm<$26>: ax+c inner loop begin
# 0 "" 2
#NO_APP
	testq	%rdi, %rdi
	jle	.L800
	cmpq	$2, %rdi
	jle	.L802
	movl	$1, %r8d
.L798:
	movq	%rsi, %rax
	.p2align 4,,10
	.p2align 3
.L797:
	vmovaps	%zmm2, %zmm0
	vfmadd132ps	(%rax), %zmm1, %zmm0
	addq	$64, %rax
	vfmadd132ps	%zmm2, %zmm1, %zmm0
	vmovups	%zmm0, -64(%rax)
	cmpq	%rdx, %rax
	jne	.L797
	leaq	1(%r8), %rcx
	addq	$2, %r8
	cmpq	%r8, %r11
	jg	.L798
	.p2align 4,,10
	.p2align 3
.L801:
	movq	%rsi, %rax
	.p2align 4,,10
	.p2align 3
.L799:
	vmovaps	%zmm2, %zmm0
	vfmadd132ps	(%rax), %zmm1, %zmm0
	addq	$64, %rax
	vmovups	%zmm0, -64(%rax)
	cmpq	%rdx, %rax
	jne	.L799
	incq	%rcx
	cmpq	%rcx, %rdi
	jg	.L801
.L800:
#APP
# 261 "axpb.cc" 1
	# axpb_simd_m_mnm<$26>: ax+c inner loop end
# 0 "" 2
#NO_APP
	addq	$26, %r9
	addq	$1664, %rsi
	addq	$1664, %rdx
	cmpq	%r9, %r10
	jg	.L795
.L803:
	xorl	%eax, %eax
	vzeroupper
	leave
	.cfi_remember_state
	.cfi_def_cfa 7, 8
	ret
.L802:
	.cfi_restore_state
	xorl	%ecx, %ecx
	jmp	.L801
.L809:
	leaq	.LC83(%rip), %rcx
	movl	$251, %edx
	leaq	.LC1(%rip), %rsi
	leaq	.LC8(%rip), %rdi
	call	__assert_fail@PLT
.L810:
	leaq	.LC83(%rip), %rcx
	movl	$252, %edx
	leaq	.LC1(%rip), %rsi
	leaq	.LC4(%rip), %rdi
	call	__assert_fail@PLT
	.cfi_endproc
.LFE5792:
	.size	_Z15axpb_simd_m_mnmILi26EEl14axpb_options_tfPff, .-_Z15axpb_simd_m_mnmILi26EEl14axpb_options_tfPff
	.section	.rodata._Z11axpb_simd_cILi26EEl14axpb_options_tfPff.str1.8,"aMS",@progbits,1
	.align 8
.LC84:
	.string	"long int axpb_simd_c(axpb_options_t, float, float*, float) [with int c = 26]"
	.section	.text._Z11axpb_simd_cILi26EEl14axpb_options_tfPff,"axG",@progbits,_Z11axpb_simd_cILi26EEl14axpb_options_tfPff,comdat
	.p2align 4
	.weak	_Z11axpb_simd_cILi26EEl14axpb_options_tfPff
	.type	_Z11axpb_simd_cILi26EEl14axpb_options_tfPff, @function
_Z11axpb_simd_cILi26EEl14axpb_options_tfPff:
.LFB5791:
	.cfi_startproc
	endbr64
	pushq	%rbp
	.cfi_def_cfa_offset 16
	.cfi_offset 6, -16
	movq	%rsp, %rbp
	.cfi_def_cfa_register 6
	andq	$-64, %rsp
	cmpq	$416, 56(%rbp)
	jne	.L827
	movq	32(%rbp), %r8
	cmpq	$1, %r8
	jne	.L828
	movq	64(%rbp), %rsi
#APP
# 153 "axpb.cc" 1
	# axpb_simd_c<$26>: ax+c loop begin
# 0 "" 2
#NO_APP
	testq	%rsi, %rsi
	jle	.L819
	vbroadcastss	%xmm0, %zmm2
	vbroadcastss	%xmm1, %zmm1
	leaq	-1(%rsi), %r9
	cmpq	$2, %rsi
	jle	.L821
	leaq	1664(%rdi), %rdx
.L817:
	movq	%rdi, %rax
	.p2align 4,,10
	.p2align 3
.L816:
	vmovaps	%zmm2, %zmm0
	vfmadd132ps	(%rax), %zmm1, %zmm0
	addq	$64, %rax
	vfmadd132ps	%zmm2, %zmm1, %zmm0
	vmovups	%zmm0, -64(%rax)
	cmpq	%rdx, %rax
	jne	.L816
	leaq	1(%r8), %rcx
	addq	$2, %r8
	cmpq	%r8, %r9
	jg	.L817
	.p2align 4,,10
	.p2align 3
.L820:
	movq	%rdi, %rax
	.p2align 4,,10
	.p2align 3
.L818:
	vmovaps	%zmm2, %zmm0
	vfmadd132ps	(%rax), %zmm1, %zmm0
	addq	$64, %rax
	vmovups	%zmm0, -64(%rax)
	cmpq	%rdx, %rax
	jne	.L818
	incq	%rcx
	cmpq	%rcx, %rsi
	jg	.L820
	vzeroupper
.L819:
#APP
# 159 "axpb.cc" 1
	# axpb_simd_c<$26>: ax+c loop end
# 0 "" 2
#NO_APP
	xorl	%eax, %eax
	leave
	.cfi_remember_state
	.cfi_def_cfa 7, 8
	ret
.L821:
	.cfi_restore_state
	xorl	%ecx, %ecx
	leaq	1664(%rdi), %rdx
	jmp	.L820
.L827:
	leaq	.LC84(%rip), %rcx
	movl	$149, %edx
	leaq	.LC1(%rip), %rsi
	leaq	.LC10(%rip), %rdi
	call	__assert_fail@PLT
.L828:
	leaq	.LC84(%rip), %rcx
	movl	$150, %edx
	leaq	.LC1(%rip), %rsi
	leaq	.LC4(%rip), %rdi
	call	__assert_fail@PLT
	.cfi_endproc
.LFE5791:
	.size	_Z11axpb_simd_cILi26EEl14axpb_options_tfPff, .-_Z11axpb_simd_cILi26EEl14axpb_options_tfPff
	.section	.rodata._Z24axpb_simd_parallel_m_mnmILi27EEl14axpb_options_tfPff.str1.8,"aMS",@progbits,1
	.align 8
.LC85:
	.string	"long int axpb_simd_parallel_m_mnm(axpb_options_t, float, float*, float) [with int c = 27]"
	.section	.text._Z24axpb_simd_parallel_m_mnmILi27EEl14axpb_options_tfPff,"axG",@progbits,_Z24axpb_simd_parallel_m_mnmILi27EEl14axpb_options_tfPff,comdat
	.p2align 4
	.weak	_Z24axpb_simd_parallel_m_mnmILi27EEl14axpb_options_tfPff
	.type	_Z24axpb_simd_parallel_m_mnmILi27EEl14axpb_options_tfPff, @function
_Z24axpb_simd_parallel_m_mnmILi27EEl14axpb_options_tfPff:
.LFB5796:
	.cfi_startproc
	endbr64
	pushq	%rax
	.cfi_def_cfa_offset 16
	popq	%rax
	.cfi_def_cfa_offset 8
	leaq	.LC85(%rip), %rcx
	movl	$287, %edx
	leaq	.LC1(%rip), %rsi
	leaq	.LC6(%rip), %rdi
	subq	$8, %rsp
	.cfi_def_cfa_offset 16
	call	__assert_fail@PLT
	.cfi_endproc
.LFE5796:
	.size	_Z24axpb_simd_parallel_m_mnmILi27EEl14axpb_options_tfPff, .-_Z24axpb_simd_parallel_m_mnmILi27EEl14axpb_options_tfPff
	.section	.rodata._Z15axpb_simd_m_mnmILi27EEl14axpb_options_tfPff.str1.8,"aMS",@progbits,1
	.align 8
.LC86:
	.string	"long int axpb_simd_m_mnm(axpb_options_t, float, float*, float) [with int c = 27]"
	.section	.text._Z15axpb_simd_m_mnmILi27EEl14axpb_options_tfPff,"axG",@progbits,_Z15axpb_simd_m_mnmILi27EEl14axpb_options_tfPff,comdat
	.p2align 4
	.weak	_Z15axpb_simd_m_mnmILi27EEl14axpb_options_tfPff
	.type	_Z15axpb_simd_m_mnmILi27EEl14axpb_options_tfPff, @function
_Z15axpb_simd_m_mnmILi27EEl14axpb_options_tfPff:
.LFB5795:
	.cfi_startproc
	endbr64
	pushq	%rbp
	.cfi_def_cfa_offset 16
	.cfi_offset 6, -16
	movabsq	$341606371735362067, %rdx
	movq	%rdi, %rsi
	movq	%rsp, %rbp
	.cfi_def_cfa_register 6
	movq	56(%rbp), %rcx
	movq	64(%rbp), %rdi
	movq	%rcx, %rax
	imulq	%rdx
	andq	$-64, %rsp
	movq	%rdx, %rax
	movq	%rcx, %rdx
	sarq	$3, %rax
	sarq	$63, %rdx
	subq	%rdx, %rax
	imulq	$432, %rax, %rax
	cmpq	%rax, %rcx
	jne	.L851
	cmpq	$1, 32(%rbp)
	jne	.L852
	testq	%rcx, %rcx
	leaq	15(%rcx), %r10
	cmovns	%rcx, %r10
	leaq	1728(%rsi), %rdx
	sarq	$4, %r10
	xorl	%r9d, %r9d
	vbroadcastss	%xmm0, %zmm2
	vbroadcastss	%xmm1, %zmm1
	leaq	-1(%rdi), %r11
	cmpq	$15, %rcx
	jle	.L845
.L837:
#APP
# 255 "axpb.cc" 1
	# axpb_simd_m_mnm<$27>: ax+c inner loop begin
# 0 "" 2
#NO_APP
	testq	%rdi, %rdi
	jle	.L842
	cmpq	$2, %rdi
	jle	.L844
	movl	$1, %r8d
.L840:
	movq	%rsi, %rax
	.p2align 4,,10
	.p2align 3
.L839:
	vmovaps	%zmm2, %zmm0
	vfmadd132ps	(%rax), %zmm1, %zmm0
	addq	$64, %rax
	vfmadd132ps	%zmm2, %zmm1, %zmm0
	vmovups	%zmm0, -64(%rax)
	cmpq	%rdx, %rax
	jne	.L839
	leaq	1(%r8), %rcx
	addq	$2, %r8
	cmpq	%r8, %r11
	jg	.L840
	.p2align 4,,10
	.p2align 3
.L843:
	movq	%rsi, %rax
	.p2align 4,,10
	.p2align 3
.L841:
	vmovaps	%zmm2, %zmm0
	vfmadd132ps	(%rax), %zmm1, %zmm0
	addq	$64, %rax
	vmovups	%zmm0, -64(%rax)
	cmpq	%rdx, %rax
	jne	.L841
	incq	%rcx
	cmpq	%rcx, %rdi
	jg	.L843
.L842:
#APP
# 261 "axpb.cc" 1
	# axpb_simd_m_mnm<$27>: ax+c inner loop end
# 0 "" 2
#NO_APP
	addq	$27, %r9
	addq	$1728, %rsi
	addq	$1728, %rdx
	cmpq	%r9, %r10
	jg	.L837
.L845:
	xorl	%eax, %eax
	vzeroupper
	leave
	.cfi_remember_state
	.cfi_def_cfa 7, 8
	ret
.L844:
	.cfi_restore_state
	xorl	%ecx, %ecx
	jmp	.L843
.L851:
	leaq	.LC86(%rip), %rcx
	movl	$251, %edx
	leaq	.LC1(%rip), %rsi
	leaq	.LC8(%rip), %rdi
	call	__assert_fail@PLT
.L852:
	leaq	.LC86(%rip), %rcx
	movl	$252, %edx
	leaq	.LC1(%rip), %rsi
	leaq	.LC4(%rip), %rdi
	call	__assert_fail@PLT
	.cfi_endproc
.LFE5795:
	.size	_Z15axpb_simd_m_mnmILi27EEl14axpb_options_tfPff, .-_Z15axpb_simd_m_mnmILi27EEl14axpb_options_tfPff
	.section	.rodata._Z11axpb_simd_cILi27EEl14axpb_options_tfPff.str1.8,"aMS",@progbits,1
	.align 8
.LC87:
	.string	"long int axpb_simd_c(axpb_options_t, float, float*, float) [with int c = 27]"
	.section	.text._Z11axpb_simd_cILi27EEl14axpb_options_tfPff,"axG",@progbits,_Z11axpb_simd_cILi27EEl14axpb_options_tfPff,comdat
	.p2align 4
	.weak	_Z11axpb_simd_cILi27EEl14axpb_options_tfPff
	.type	_Z11axpb_simd_cILi27EEl14axpb_options_tfPff, @function
_Z11axpb_simd_cILi27EEl14axpb_options_tfPff:
.LFB5794:
	.cfi_startproc
	endbr64
	pushq	%rbp
	.cfi_def_cfa_offset 16
	.cfi_offset 6, -16
	movq	%rsp, %rbp
	.cfi_def_cfa_register 6
	andq	$-64, %rsp
	cmpq	$432, 56(%rbp)
	jne	.L869
	movq	32(%rbp), %r8
	cmpq	$1, %r8
	jne	.L870
	movq	64(%rbp), %rsi
#APP
# 153 "axpb.cc" 1
	# axpb_simd_c<$27>: ax+c loop begin
# 0 "" 2
#NO_APP
	testq	%rsi, %rsi
	jle	.L861
	vbroadcastss	%xmm0, %zmm2
	vbroadcastss	%xmm1, %zmm1
	leaq	-1(%rsi), %r9
	cmpq	$2, %rsi
	jle	.L863
	leaq	1728(%rdi), %rdx
.L859:
	movq	%rdi, %rax
	.p2align 4,,10
	.p2align 3
.L858:
	vmovaps	%zmm2, %zmm0
	vfmadd132ps	(%rax), %zmm1, %zmm0
	addq	$64, %rax
	vfmadd132ps	%zmm2, %zmm1, %zmm0
	vmovups	%zmm0, -64(%rax)
	cmpq	%rdx, %rax
	jne	.L858
	leaq	1(%r8), %rcx
	addq	$2, %r8
	cmpq	%r8, %r9
	jg	.L859
	.p2align 4,,10
	.p2align 3
.L862:
	movq	%rdi, %rax
	.p2align 4,,10
	.p2align 3
.L860:
	vmovaps	%zmm2, %zmm0
	vfmadd132ps	(%rax), %zmm1, %zmm0
	addq	$64, %rax
	vmovups	%zmm0, -64(%rax)
	cmpq	%rdx, %rax
	jne	.L860
	incq	%rcx
	cmpq	%rcx, %rsi
	jg	.L862
	vzeroupper
.L861:
#APP
# 159 "axpb.cc" 1
	# axpb_simd_c<$27>: ax+c loop end
# 0 "" 2
#NO_APP
	xorl	%eax, %eax
	leave
	.cfi_remember_state
	.cfi_def_cfa 7, 8
	ret
.L863:
	.cfi_restore_state
	xorl	%ecx, %ecx
	leaq	1728(%rdi), %rdx
	jmp	.L862
.L869:
	leaq	.LC87(%rip), %rcx
	movl	$149, %edx
	leaq	.LC1(%rip), %rsi
	leaq	.LC10(%rip), %rdi
	call	__assert_fail@PLT
.L870:
	leaq	.LC87(%rip), %rcx
	movl	$150, %edx
	leaq	.LC1(%rip), %rsi
	leaq	.LC4(%rip), %rdi
	call	__assert_fail@PLT
	.cfi_endproc
.LFE5794:
	.size	_Z11axpb_simd_cILi27EEl14axpb_options_tfPff, .-_Z11axpb_simd_cILi27EEl14axpb_options_tfPff
	.section	.rodata._Z24axpb_simd_parallel_m_mnmILi28EEl14axpb_options_tfPff.str1.8,"aMS",@progbits,1
	.align 8
.LC88:
	.string	"long int axpb_simd_parallel_m_mnm(axpb_options_t, float, float*, float) [with int c = 28]"
	.section	.text._Z24axpb_simd_parallel_m_mnmILi28EEl14axpb_options_tfPff,"axG",@progbits,_Z24axpb_simd_parallel_m_mnmILi28EEl14axpb_options_tfPff,comdat
	.p2align 4
	.weak	_Z24axpb_simd_parallel_m_mnmILi28EEl14axpb_options_tfPff
	.type	_Z24axpb_simd_parallel_m_mnmILi28EEl14axpb_options_tfPff, @function
_Z24axpb_simd_parallel_m_mnmILi28EEl14axpb_options_tfPff:
.LFB5799:
	.cfi_startproc
	endbr64
	pushq	%rax
	.cfi_def_cfa_offset 16
	popq	%rax
	.cfi_def_cfa_offset 8
	leaq	.LC88(%rip), %rcx
	movl	$287, %edx
	leaq	.LC1(%rip), %rsi
	leaq	.LC6(%rip), %rdi
	subq	$8, %rsp
	.cfi_def_cfa_offset 16
	call	__assert_fail@PLT
	.cfi_endproc
.LFE5799:
	.size	_Z24axpb_simd_parallel_m_mnmILi28EEl14axpb_options_tfPff, .-_Z24axpb_simd_parallel_m_mnmILi28EEl14axpb_options_tfPff
	.section	.rodata._Z15axpb_simd_m_mnmILi28EEl14axpb_options_tfPff.str1.8,"aMS",@progbits,1
	.align 8
.LC89:
	.string	"long int axpb_simd_m_mnm(axpb_options_t, float, float*, float) [with int c = 28]"
	.section	.text._Z15axpb_simd_m_mnmILi28EEl14axpb_options_tfPff,"axG",@progbits,_Z15axpb_simd_m_mnmILi28EEl14axpb_options_tfPff,comdat
	.p2align 4
	.weak	_Z15axpb_simd_m_mnmILi28EEl14axpb_options_tfPff
	.type	_Z15axpb_simd_m_mnmILi28EEl14axpb_options_tfPff, @function
_Z15axpb_simd_m_mnmILi28EEl14axpb_options_tfPff:
.LFB5798:
	.cfi_startproc
	endbr64
	pushq	%rbp
	.cfi_def_cfa_offset 16
	.cfi_offset 6, -16
	movabsq	$5270498306774157605, %rdx
	movq	%rdi, %rsi
	movq	%rsp, %rbp
	.cfi_def_cfa_register 6
	movq	56(%rbp), %rcx
	movq	64(%rbp), %rdi
	movq	%rcx, %rax
	imulq	%rdx
	andq	$-64, %rsp
	movq	%rdx, %rax
	movq	%rcx, %rdx
	sarq	$7, %rax
	sarq	$63, %rdx
	subq	%rdx, %rax
	imulq	$448, %rax, %rax
	cmpq	%rax, %rcx
	jne	.L893
	cmpq	$1, 32(%rbp)
	jne	.L894
	testq	%rcx, %rcx
	leaq	15(%rcx), %r10
	cmovns	%rcx, %r10
	leaq	1792(%rsi), %rdx
	sarq	$4, %r10
	xorl	%r9d, %r9d
	vbroadcastss	%xmm0, %zmm2
	vbroadcastss	%xmm1, %zmm1
	leaq	-1(%rdi), %r11
	cmpq	$15, %rcx
	jle	.L887
.L879:
#APP
# 255 "axpb.cc" 1
	# axpb_simd_m_mnm<$28>: ax+c inner loop begin
# 0 "" 2
#NO_APP
	testq	%rdi, %rdi
	jle	.L884
	cmpq	$2, %rdi
	jle	.L886
	movl	$1, %r8d
.L882:
	movq	%rsi, %rax
	.p2align 4,,10
	.p2align 3
.L881:
	vmovaps	%zmm2, %zmm0
	vfmadd132ps	(%rax), %zmm1, %zmm0
	addq	$64, %rax
	vfmadd132ps	%zmm2, %zmm1, %zmm0
	vmovups	%zmm0, -64(%rax)
	cmpq	%rdx, %rax
	jne	.L881
	leaq	1(%r8), %rcx
	addq	$2, %r8
	cmpq	%r8, %r11
	jg	.L882
	.p2align 4,,10
	.p2align 3
.L885:
	movq	%rsi, %rax
	.p2align 4,,10
	.p2align 3
.L883:
	vmovaps	%zmm2, %zmm0
	vfmadd132ps	(%rax), %zmm1, %zmm0
	addq	$64, %rax
	vmovups	%zmm0, -64(%rax)
	cmpq	%rdx, %rax
	jne	.L883
	incq	%rcx
	cmpq	%rcx, %rdi
	jg	.L885
.L884:
#APP
# 261 "axpb.cc" 1
	# axpb_simd_m_mnm<$28>: ax+c inner loop end
# 0 "" 2
#NO_APP
	addq	$28, %r9
	addq	$1792, %rsi
	addq	$1792, %rdx
	cmpq	%r9, %r10
	jg	.L879
.L887:
	xorl	%eax, %eax
	vzeroupper
	leave
	.cfi_remember_state
	.cfi_def_cfa 7, 8
	ret
.L886:
	.cfi_restore_state
	xorl	%ecx, %ecx
	jmp	.L885
.L893:
	leaq	.LC89(%rip), %rcx
	movl	$251, %edx
	leaq	.LC1(%rip), %rsi
	leaq	.LC8(%rip), %rdi
	call	__assert_fail@PLT
.L894:
	leaq	.LC89(%rip), %rcx
	movl	$252, %edx
	leaq	.LC1(%rip), %rsi
	leaq	.LC4(%rip), %rdi
	call	__assert_fail@PLT
	.cfi_endproc
.LFE5798:
	.size	_Z15axpb_simd_m_mnmILi28EEl14axpb_options_tfPff, .-_Z15axpb_simd_m_mnmILi28EEl14axpb_options_tfPff
	.section	.rodata._Z11axpb_simd_cILi28EEl14axpb_options_tfPff.str1.8,"aMS",@progbits,1
	.align 8
.LC90:
	.string	"long int axpb_simd_c(axpb_options_t, float, float*, float) [with int c = 28]"
	.section	.text._Z11axpb_simd_cILi28EEl14axpb_options_tfPff,"axG",@progbits,_Z11axpb_simd_cILi28EEl14axpb_options_tfPff,comdat
	.p2align 4
	.weak	_Z11axpb_simd_cILi28EEl14axpb_options_tfPff
	.type	_Z11axpb_simd_cILi28EEl14axpb_options_tfPff, @function
_Z11axpb_simd_cILi28EEl14axpb_options_tfPff:
.LFB5797:
	.cfi_startproc
	endbr64
	pushq	%rbp
	.cfi_def_cfa_offset 16
	.cfi_offset 6, -16
	movq	%rsp, %rbp
	.cfi_def_cfa_register 6
	andq	$-64, %rsp
	cmpq	$448, 56(%rbp)
	jne	.L911
	movq	32(%rbp), %r8
	cmpq	$1, %r8
	jne	.L912
	movq	64(%rbp), %rsi
#APP
# 153 "axpb.cc" 1
	# axpb_simd_c<$28>: ax+c loop begin
# 0 "" 2
#NO_APP
	testq	%rsi, %rsi
	jle	.L903
	vbroadcastss	%xmm0, %zmm2
	vbroadcastss	%xmm1, %zmm1
	leaq	-1(%rsi), %r9
	cmpq	$2, %rsi
	jle	.L905
	leaq	1792(%rdi), %rdx
.L901:
	movq	%rdi, %rax
	.p2align 4,,10
	.p2align 3
.L900:
	vmovaps	%zmm2, %zmm0
	vfmadd132ps	(%rax), %zmm1, %zmm0
	addq	$64, %rax
	vfmadd132ps	%zmm2, %zmm1, %zmm0
	vmovups	%zmm0, -64(%rax)
	cmpq	%rdx, %rax
	jne	.L900
	leaq	1(%r8), %rcx
	addq	$2, %r8
	cmpq	%r8, %r9
	jg	.L901
	.p2align 4,,10
	.p2align 3
.L904:
	movq	%rdi, %rax
	.p2align 4,,10
	.p2align 3
.L902:
	vmovaps	%zmm2, %zmm0
	vfmadd132ps	(%rax), %zmm1, %zmm0
	addq	$64, %rax
	vmovups	%zmm0, -64(%rax)
	cmpq	%rdx, %rax
	jne	.L902
	incq	%rcx
	cmpq	%rcx, %rsi
	jg	.L904
	vzeroupper
.L903:
#APP
# 159 "axpb.cc" 1
	# axpb_simd_c<$28>: ax+c loop end
# 0 "" 2
#NO_APP
	xorl	%eax, %eax
	leave
	.cfi_remember_state
	.cfi_def_cfa 7, 8
	ret
.L905:
	.cfi_restore_state
	xorl	%ecx, %ecx
	leaq	1792(%rdi), %rdx
	jmp	.L904
.L911:
	leaq	.LC90(%rip), %rcx
	movl	$149, %edx
	leaq	.LC1(%rip), %rsi
	leaq	.LC10(%rip), %rdi
	call	__assert_fail@PLT
.L912:
	leaq	.LC90(%rip), %rcx
	movl	$150, %edx
	leaq	.LC1(%rip), %rsi
	leaq	.LC4(%rip), %rdi
	call	__assert_fail@PLT
	.cfi_endproc
.LFE5797:
	.size	_Z11axpb_simd_cILi28EEl14axpb_options_tfPff, .-_Z11axpb_simd_cILi28EEl14axpb_options_tfPff
	.section	.rodata._Z24axpb_simd_parallel_m_mnmILi29EEl14axpb_options_tfPff.str1.8,"aMS",@progbits,1
	.align 8
.LC91:
	.string	"long int axpb_simd_parallel_m_mnm(axpb_options_t, float, float*, float) [with int c = 29]"
	.section	.text._Z24axpb_simd_parallel_m_mnmILi29EEl14axpb_options_tfPff,"axG",@progbits,_Z24axpb_simd_parallel_m_mnmILi29EEl14axpb_options_tfPff,comdat
	.p2align 4
	.weak	_Z24axpb_simd_parallel_m_mnmILi29EEl14axpb_options_tfPff
	.type	_Z24axpb_simd_parallel_m_mnmILi29EEl14axpb_options_tfPff, @function
_Z24axpb_simd_parallel_m_mnmILi29EEl14axpb_options_tfPff:
.LFB5802:
	.cfi_startproc
	endbr64
	pushq	%rax
	.cfi_def_cfa_offset 16
	popq	%rax
	.cfi_def_cfa_offset 8
	leaq	.LC91(%rip), %rcx
	movl	$287, %edx
	leaq	.LC1(%rip), %rsi
	leaq	.LC6(%rip), %rdi
	subq	$8, %rsp
	.cfi_def_cfa_offset 16
	call	__assert_fail@PLT
	.cfi_endproc
.LFE5802:
	.size	_Z24axpb_simd_parallel_m_mnmILi29EEl14axpb_options_tfPff, .-_Z24axpb_simd_parallel_m_mnmILi29EEl14axpb_options_tfPff
	.section	.rodata._Z15axpb_simd_m_mnmILi29EEl14axpb_options_tfPff.str1.8,"aMS",@progbits,1
	.align 8
.LC92:
	.string	"long int axpb_simd_m_mnm(axpb_options_t, float, float*, float) [with int c = 29]"
	.section	.text._Z15axpb_simd_m_mnmILi29EEl14axpb_options_tfPff,"axG",@progbits,_Z15axpb_simd_m_mnmILi29EEl14axpb_options_tfPff,comdat
	.p2align 4
	.weak	_Z15axpb_simd_m_mnmILi29EEl14axpb_options_tfPff
	.type	_Z15axpb_simd_m_mnmILi29EEl14axpb_options_tfPff, @function
_Z15axpb_simd_m_mnmILi29EEl14axpb_options_tfPff:
.LFB5801:
	.cfi_startproc
	endbr64
	pushq	%rbp
	.cfi_def_cfa_offset 16
	.cfi_offset 6, -16
	movabsq	$5088756985850910791, %rdx
	movq	%rdi, %rsi
	movq	%rsp, %rbp
	.cfi_def_cfa_register 6
	movq	56(%rbp), %rcx
	movq	64(%rbp), %rdi
	movq	%rcx, %rax
	imulq	%rdx
	andq	$-64, %rsp
	movq	%rdx, %rax
	movq	%rcx, %rdx
	sarq	$7, %rax
	sarq	$63, %rdx
	subq	%rdx, %rax
	imulq	$464, %rax, %rax
	cmpq	%rax, %rcx
	jne	.L935
	cmpq	$1, 32(%rbp)
	jne	.L936
	testq	%rcx, %rcx
	leaq	15(%rcx), %r10
	cmovns	%rcx, %r10
	leaq	1856(%rsi), %rdx
	sarq	$4, %r10
	xorl	%r9d, %r9d
	vbroadcastss	%xmm0, %zmm2
	vbroadcastss	%xmm1, %zmm1
	leaq	-1(%rdi), %r11
	cmpq	$15, %rcx
	jle	.L929
.L921:
#APP
# 255 "axpb.cc" 1
	# axpb_simd_m_mnm<$29>: ax+c inner loop begin
# 0 "" 2
#NO_APP
	testq	%rdi, %rdi
	jle	.L926
	cmpq	$2, %rdi
	jle	.L928
	movl	$1, %r8d
.L924:
	movq	%rsi, %rax
	.p2align 4,,10
	.p2align 3
.L923:
	vmovaps	%zmm2, %zmm0
	vfmadd132ps	(%rax), %zmm1, %zmm0
	addq	$64, %rax
	vfmadd132ps	%zmm2, %zmm1, %zmm0
	vmovups	%zmm0, -64(%rax)
	cmpq	%rdx, %rax
	jne	.L923
	leaq	1(%r8), %rcx
	addq	$2, %r8
	cmpq	%r8, %r11
	jg	.L924
	.p2align 4,,10
	.p2align 3
.L927:
	movq	%rsi, %rax
	.p2align 4,,10
	.p2align 3
.L925:
	vmovaps	%zmm2, %zmm0
	vfmadd132ps	(%rax), %zmm1, %zmm0
	addq	$64, %rax
	vmovups	%zmm0, -64(%rax)
	cmpq	%rdx, %rax
	jne	.L925
	incq	%rcx
	cmpq	%rcx, %rdi
	jg	.L927
.L926:
#APP
# 261 "axpb.cc" 1
	# axpb_simd_m_mnm<$29>: ax+c inner loop end
# 0 "" 2
#NO_APP
	addq	$29, %r9
	addq	$1856, %rsi
	addq	$1856, %rdx
	cmpq	%r9, %r10
	jg	.L921
.L929:
	xorl	%eax, %eax
	vzeroupper
	leave
	.cfi_remember_state
	.cfi_def_cfa 7, 8
	ret
.L928:
	.cfi_restore_state
	xorl	%ecx, %ecx
	jmp	.L927
.L935:
	leaq	.LC92(%rip), %rcx
	movl	$251, %edx
	leaq	.LC1(%rip), %rsi
	leaq	.LC8(%rip), %rdi
	call	__assert_fail@PLT
.L936:
	leaq	.LC92(%rip), %rcx
	movl	$252, %edx
	leaq	.LC1(%rip), %rsi
	leaq	.LC4(%rip), %rdi
	call	__assert_fail@PLT
	.cfi_endproc
.LFE5801:
	.size	_Z15axpb_simd_m_mnmILi29EEl14axpb_options_tfPff, .-_Z15axpb_simd_m_mnmILi29EEl14axpb_options_tfPff
	.section	.rodata._Z11axpb_simd_cILi29EEl14axpb_options_tfPff.str1.8,"aMS",@progbits,1
	.align 8
.LC93:
	.string	"long int axpb_simd_c(axpb_options_t, float, float*, float) [with int c = 29]"
	.section	.text._Z11axpb_simd_cILi29EEl14axpb_options_tfPff,"axG",@progbits,_Z11axpb_simd_cILi29EEl14axpb_options_tfPff,comdat
	.p2align 4
	.weak	_Z11axpb_simd_cILi29EEl14axpb_options_tfPff
	.type	_Z11axpb_simd_cILi29EEl14axpb_options_tfPff, @function
_Z11axpb_simd_cILi29EEl14axpb_options_tfPff:
.LFB5800:
	.cfi_startproc
	endbr64
	pushq	%rbp
	.cfi_def_cfa_offset 16
	.cfi_offset 6, -16
	movq	%rsp, %rbp
	.cfi_def_cfa_register 6
	andq	$-64, %rsp
	cmpq	$464, 56(%rbp)
	jne	.L953
	movq	32(%rbp), %r8
	cmpq	$1, %r8
	jne	.L954
	movq	64(%rbp), %rsi
#APP
# 153 "axpb.cc" 1
	# axpb_simd_c<$29>: ax+c loop begin
# 0 "" 2
#NO_APP
	testq	%rsi, %rsi
	jle	.L945
	vbroadcastss	%xmm0, %zmm2
	vbroadcastss	%xmm1, %zmm1
	leaq	-1(%rsi), %r9
	cmpq	$2, %rsi
	jle	.L947
	leaq	1856(%rdi), %rdx
.L943:
	movq	%rdi, %rax
	.p2align 4,,10
	.p2align 3
.L942:
	vmovaps	%zmm2, %zmm0
	vfmadd132ps	(%rax), %zmm1, %zmm0
	addq	$64, %rax
	vfmadd132ps	%zmm2, %zmm1, %zmm0
	vmovups	%zmm0, -64(%rax)
	cmpq	%rdx, %rax
	jne	.L942
	leaq	1(%r8), %rcx
	addq	$2, %r8
	cmpq	%r8, %r9
	jg	.L943
	.p2align 4,,10
	.p2align 3
.L946:
	movq	%rdi, %rax
	.p2align 4,,10
	.p2align 3
.L944:
	vmovaps	%zmm2, %zmm0
	vfmadd132ps	(%rax), %zmm1, %zmm0
	addq	$64, %rax
	vmovups	%zmm0, -64(%rax)
	cmpq	%rdx, %rax
	jne	.L944
	incq	%rcx
	cmpq	%rcx, %rsi
	jg	.L946
	vzeroupper
.L945:
#APP
# 159 "axpb.cc" 1
	# axpb_simd_c<$29>: ax+c loop end
# 0 "" 2
#NO_APP
	xorl	%eax, %eax
	leave
	.cfi_remember_state
	.cfi_def_cfa 7, 8
	ret
.L947:
	.cfi_restore_state
	xorl	%ecx, %ecx
	leaq	1856(%rdi), %rdx
	jmp	.L946
.L953:
	leaq	.LC93(%rip), %rcx
	movl	$149, %edx
	leaq	.LC1(%rip), %rsi
	leaq	.LC10(%rip), %rdi
	call	__assert_fail@PLT
.L954:
	leaq	.LC93(%rip), %rcx
	movl	$150, %edx
	leaq	.LC1(%rip), %rsi
	leaq	.LC4(%rip), %rdi
	call	__assert_fail@PLT
	.cfi_endproc
.LFE5800:
	.size	_Z11axpb_simd_cILi29EEl14axpb_options_tfPff, .-_Z11axpb_simd_cILi29EEl14axpb_options_tfPff
	.section	.rodata._Z24axpb_simd_parallel_m_mnmILi30EEl14axpb_options_tfPff.str1.8,"aMS",@progbits,1
	.align 8
.LC94:
	.string	"long int axpb_simd_parallel_m_mnm(axpb_options_t, float, float*, float) [with int c = 30]"
	.section	.text._Z24axpb_simd_parallel_m_mnmILi30EEl14axpb_options_tfPff,"axG",@progbits,_Z24axpb_simd_parallel_m_mnmILi30EEl14axpb_options_tfPff,comdat
	.p2align 4
	.weak	_Z24axpb_simd_parallel_m_mnmILi30EEl14axpb_options_tfPff
	.type	_Z24axpb_simd_parallel_m_mnmILi30EEl14axpb_options_tfPff, @function
_Z24axpb_simd_parallel_m_mnmILi30EEl14axpb_options_tfPff:
.LFB5805:
	.cfi_startproc
	endbr64
	pushq	%rax
	.cfi_def_cfa_offset 16
	popq	%rax
	.cfi_def_cfa_offset 8
	leaq	.LC94(%rip), %rcx
	movl	$287, %edx
	leaq	.LC1(%rip), %rsi
	leaq	.LC6(%rip), %rdi
	subq	$8, %rsp
	.cfi_def_cfa_offset 16
	call	__assert_fail@PLT
	.cfi_endproc
.LFE5805:
	.size	_Z24axpb_simd_parallel_m_mnmILi30EEl14axpb_options_tfPff, .-_Z24axpb_simd_parallel_m_mnmILi30EEl14axpb_options_tfPff
	.section	.rodata._Z15axpb_simd_m_mnmILi30EEl14axpb_options_tfPff.str1.8,"aMS",@progbits,1
	.align 8
.LC95:
	.string	"long int axpb_simd_m_mnm(axpb_options_t, float, float*, float) [with int c = 30]"
	.section	.text._Z15axpb_simd_m_mnmILi30EEl14axpb_options_tfPff,"axG",@progbits,_Z15axpb_simd_m_mnmILi30EEl14axpb_options_tfPff,comdat
	.p2align 4
	.weak	_Z15axpb_simd_m_mnmILi30EEl14axpb_options_tfPff
	.type	_Z15axpb_simd_m_mnmILi30EEl14axpb_options_tfPff, @function
_Z15axpb_simd_m_mnmILi30EEl14axpb_options_tfPff:
.LFB5804:
	.cfi_startproc
	endbr64
	pushq	%rbp
	.cfi_def_cfa_offset 16
	.cfi_offset 6, -16
	movabsq	$-8608480567731124087, %rdx
	movq	%rdi, %rsi
	movq	%rsp, %rbp
	.cfi_def_cfa_register 6
	movq	56(%rbp), %rcx
	movq	64(%rbp), %rdi
	movq	%rcx, %rax
	imulq	%rdx
	andq	$-64, %rsp
	leaq	(%rdx,%rcx), %rax
	movq	%rcx, %rdx
	sarq	$8, %rax
	sarq	$63, %rdx
	subq	%rdx, %rax
	imulq	$480, %rax, %rax
	cmpq	%rax, %rcx
	jne	.L977
	cmpq	$1, 32(%rbp)
	jne	.L978
	testq	%rcx, %rcx
	leaq	15(%rcx), %r10
	cmovns	%rcx, %r10
	leaq	1920(%rsi), %rdx
	sarq	$4, %r10
	xorl	%r9d, %r9d
	vbroadcastss	%xmm0, %zmm2
	vbroadcastss	%xmm1, %zmm1
	leaq	-1(%rdi), %r11
	cmpq	$15, %rcx
	jle	.L971
.L963:
#APP
# 255 "axpb.cc" 1
	# axpb_simd_m_mnm<$30>: ax+c inner loop begin
# 0 "" 2
#NO_APP
	testq	%rdi, %rdi
	jle	.L968
	cmpq	$2, %rdi
	jle	.L970
	movl	$1, %r8d
.L966:
	movq	%rsi, %rax
	.p2align 4,,10
	.p2align 3
.L965:
	vmovaps	%zmm2, %zmm0
	vfmadd132ps	(%rax), %zmm1, %zmm0
	addq	$64, %rax
	vfmadd132ps	%zmm2, %zmm1, %zmm0
	vmovups	%zmm0, -64(%rax)
	cmpq	%rdx, %rax
	jne	.L965
	leaq	1(%r8), %rcx
	addq	$2, %r8
	cmpq	%r8, %r11
	jg	.L966
	.p2align 4,,10
	.p2align 3
.L969:
	movq	%rsi, %rax
	.p2align 4,,10
	.p2align 3
.L967:
	vmovaps	%zmm2, %zmm0
	vfmadd132ps	(%rax), %zmm1, %zmm0
	addq	$64, %rax
	vmovups	%zmm0, -64(%rax)
	cmpq	%rdx, %rax
	jne	.L967
	incq	%rcx
	cmpq	%rcx, %rdi
	jg	.L969
.L968:
#APP
# 261 "axpb.cc" 1
	# axpb_simd_m_mnm<$30>: ax+c inner loop end
# 0 "" 2
#NO_APP
	addq	$30, %r9
	addq	$1920, %rsi
	addq	$1920, %rdx
	cmpq	%r9, %r10
	jg	.L963
.L971:
	xorl	%eax, %eax
	vzeroupper
	leave
	.cfi_remember_state
	.cfi_def_cfa 7, 8
	ret
.L970:
	.cfi_restore_state
	xorl	%ecx, %ecx
	jmp	.L969
.L977:
	leaq	.LC95(%rip), %rcx
	movl	$251, %edx
	leaq	.LC1(%rip), %rsi
	leaq	.LC8(%rip), %rdi
	call	__assert_fail@PLT
.L978:
	leaq	.LC95(%rip), %rcx
	movl	$252, %edx
	leaq	.LC1(%rip), %rsi
	leaq	.LC4(%rip), %rdi
	call	__assert_fail@PLT
	.cfi_endproc
.LFE5804:
	.size	_Z15axpb_simd_m_mnmILi30EEl14axpb_options_tfPff, .-_Z15axpb_simd_m_mnmILi30EEl14axpb_options_tfPff
	.section	.rodata._Z11axpb_simd_cILi30EEl14axpb_options_tfPff.str1.8,"aMS",@progbits,1
	.align 8
.LC96:
	.string	"long int axpb_simd_c(axpb_options_t, float, float*, float) [with int c = 30]"
	.section	.text._Z11axpb_simd_cILi30EEl14axpb_options_tfPff,"axG",@progbits,_Z11axpb_simd_cILi30EEl14axpb_options_tfPff,comdat
	.p2align 4
	.weak	_Z11axpb_simd_cILi30EEl14axpb_options_tfPff
	.type	_Z11axpb_simd_cILi30EEl14axpb_options_tfPff, @function
_Z11axpb_simd_cILi30EEl14axpb_options_tfPff:
.LFB5803:
	.cfi_startproc
	endbr64
	pushq	%rbp
	.cfi_def_cfa_offset 16
	.cfi_offset 6, -16
	movq	%rsp, %rbp
	.cfi_def_cfa_register 6
	andq	$-64, %rsp
	cmpq	$480, 56(%rbp)
	jne	.L995
	movq	32(%rbp), %r8
	cmpq	$1, %r8
	jne	.L996
	movq	64(%rbp), %rsi
#APP
# 153 "axpb.cc" 1
	# axpb_simd_c<$30>: ax+c loop begin
# 0 "" 2
#NO_APP
	testq	%rsi, %rsi
	jle	.L987
	vbroadcastss	%xmm0, %zmm2
	vbroadcastss	%xmm1, %zmm1
	leaq	-1(%rsi), %r9
	cmpq	$2, %rsi
	jle	.L989
	leaq	1920(%rdi), %rdx
.L985:
	movq	%rdi, %rax
	.p2align 4,,10
	.p2align 3
.L984:
	vmovaps	%zmm2, %zmm0
	vfmadd132ps	(%rax), %zmm1, %zmm0
	addq	$64, %rax
	vfmadd132ps	%zmm2, %zmm1, %zmm0
	vmovups	%zmm0, -64(%rax)
	cmpq	%rdx, %rax
	jne	.L984
	leaq	1(%r8), %rcx
	addq	$2, %r8
	cmpq	%r8, %r9
	jg	.L985
	.p2align 4,,10
	.p2align 3
.L988:
	movq	%rdi, %rax
	.p2align 4,,10
	.p2align 3
.L986:
	vmovaps	%zmm2, %zmm0
	vfmadd132ps	(%rax), %zmm1, %zmm0
	addq	$64, %rax
	vmovups	%zmm0, -64(%rax)
	cmpq	%rdx, %rax
	jne	.L986
	incq	%rcx
	cmpq	%rcx, %rsi
	jg	.L988
	vzeroupper
.L987:
#APP
# 159 "axpb.cc" 1
	# axpb_simd_c<$30>: ax+c loop end
# 0 "" 2
#NO_APP
	xorl	%eax, %eax
	leave
	.cfi_remember_state
	.cfi_def_cfa 7, 8
	ret
.L989:
	.cfi_restore_state
	xorl	%ecx, %ecx
	leaq	1920(%rdi), %rdx
	jmp	.L988
.L995:
	leaq	.LC96(%rip), %rcx
	movl	$149, %edx
	leaq	.LC1(%rip), %rsi
	leaq	.LC10(%rip), %rdi
	call	__assert_fail@PLT
.L996:
	leaq	.LC96(%rip), %rcx
	movl	$150, %edx
	leaq	.LC1(%rip), %rsi
	leaq	.LC4(%rip), %rdi
	call	__assert_fail@PLT
	.cfi_endproc
.LFE5803:
	.size	_Z11axpb_simd_cILi30EEl14axpb_options_tfPff, .-_Z11axpb_simd_cILi30EEl14axpb_options_tfPff
	.section	.rodata._Z24axpb_simd_parallel_m_mnmILi31EEl14axpb_options_tfPff.str1.8,"aMS",@progbits,1
	.align 8
.LC97:
	.string	"long int axpb_simd_parallel_m_mnm(axpb_options_t, float, float*, float) [with int c = 31]"
	.section	.text._Z24axpb_simd_parallel_m_mnmILi31EEl14axpb_options_tfPff,"axG",@progbits,_Z24axpb_simd_parallel_m_mnmILi31EEl14axpb_options_tfPff,comdat
	.p2align 4
	.weak	_Z24axpb_simd_parallel_m_mnmILi31EEl14axpb_options_tfPff
	.type	_Z24axpb_simd_parallel_m_mnmILi31EEl14axpb_options_tfPff, @function
_Z24axpb_simd_parallel_m_mnmILi31EEl14axpb_options_tfPff:
.LFB5808:
	.cfi_startproc
	endbr64
	pushq	%rax
	.cfi_def_cfa_offset 16
	popq	%rax
	.cfi_def_cfa_offset 8
	leaq	.LC97(%rip), %rcx
	movl	$287, %edx
	leaq	.LC1(%rip), %rsi
	leaq	.LC6(%rip), %rdi
	subq	$8, %rsp
	.cfi_def_cfa_offset 16
	call	__assert_fail@PLT
	.cfi_endproc
.LFE5808:
	.size	_Z24axpb_simd_parallel_m_mnmILi31EEl14axpb_options_tfPff, .-_Z24axpb_simd_parallel_m_mnmILi31EEl14axpb_options_tfPff
	.section	.rodata._Z15axpb_simd_m_mnmILi31EEl14axpb_options_tfPff.str1.8,"aMS",@progbits,1
	.align 8
.LC98:
	.string	"long int axpb_simd_m_mnm(axpb_options_t, float, float*, float) [with int c = 31]"
	.section	.text._Z15axpb_simd_m_mnmILi31EEl14axpb_options_tfPff,"axG",@progbits,_Z15axpb_simd_m_mnmILi31EEl14axpb_options_tfPff,comdat
	.p2align 4
	.weak	_Z15axpb_simd_m_mnmILi31EEl14axpb_options_tfPff
	.type	_Z15axpb_simd_m_mnmILi31EEl14axpb_options_tfPff, @function
_Z15axpb_simd_m_mnmILi31EEl14axpb_options_tfPff:
.LFB5807:
	.cfi_startproc
	endbr64
	pushq	%rbp
	.cfi_def_cfa_offset 16
	.cfi_offset 6, -16
	movabsq	$-8925843906633654007, %rdx
	movq	%rdi, %rsi
	movq	%rsp, %rbp
	.cfi_def_cfa_register 6
	movq	56(%rbp), %rcx
	movq	64(%rbp), %rdi
	movq	%rcx, %rax
	imulq	%rdx
	andq	$-64, %rsp
	leaq	(%rdx,%rcx), %rax
	movq	%rcx, %rdx
	sarq	$8, %rax
	sarq	$63, %rdx
	subq	%rdx, %rax
	imulq	$496, %rax, %rax
	cmpq	%rax, %rcx
	jne	.L1019
	cmpq	$1, 32(%rbp)
	jne	.L1020
	testq	%rcx, %rcx
	leaq	15(%rcx), %r10
	cmovns	%rcx, %r10
	leaq	1984(%rsi), %rdx
	sarq	$4, %r10
	xorl	%r9d, %r9d
	vbroadcastss	%xmm0, %zmm2
	vbroadcastss	%xmm1, %zmm1
	leaq	-1(%rdi), %r11
	cmpq	$15, %rcx
	jle	.L1013
.L1005:
#APP
# 255 "axpb.cc" 1
	# axpb_simd_m_mnm<$31>: ax+c inner loop begin
# 0 "" 2
#NO_APP
	testq	%rdi, %rdi
	jle	.L1010
	cmpq	$2, %rdi
	jle	.L1012
	movl	$1, %r8d
.L1008:
	movq	%rsi, %rax
	.p2align 4,,10
	.p2align 3
.L1007:
	vmovaps	%zmm2, %zmm0
	vfmadd132ps	(%rax), %zmm1, %zmm0
	addq	$64, %rax
	vfmadd132ps	%zmm2, %zmm1, %zmm0
	vmovups	%zmm0, -64(%rax)
	cmpq	%rdx, %rax
	jne	.L1007
	leaq	1(%r8), %rcx
	addq	$2, %r8
	cmpq	%r8, %r11
	jg	.L1008
	.p2align 4,,10
	.p2align 3
.L1011:
	movq	%rsi, %rax
	.p2align 4,,10
	.p2align 3
.L1009:
	vmovaps	%zmm2, %zmm0
	vfmadd132ps	(%rax), %zmm1, %zmm0
	addq	$64, %rax
	vmovups	%zmm0, -64(%rax)
	cmpq	%rdx, %rax
	jne	.L1009
	incq	%rcx
	cmpq	%rcx, %rdi
	jg	.L1011
.L1010:
#APP
# 261 "axpb.cc" 1
	# axpb_simd_m_mnm<$31>: ax+c inner loop end
# 0 "" 2
#NO_APP
	addq	$31, %r9
	addq	$1984, %rsi
	addq	$1984, %rdx
	cmpq	%r9, %r10
	jg	.L1005
.L1013:
	xorl	%eax, %eax
	vzeroupper
	leave
	.cfi_remember_state
	.cfi_def_cfa 7, 8
	ret
.L1012:
	.cfi_restore_state
	xorl	%ecx, %ecx
	jmp	.L1011
.L1019:
	leaq	.LC98(%rip), %rcx
	movl	$251, %edx
	leaq	.LC1(%rip), %rsi
	leaq	.LC8(%rip), %rdi
	call	__assert_fail@PLT
.L1020:
	leaq	.LC98(%rip), %rcx
	movl	$252, %edx
	leaq	.LC1(%rip), %rsi
	leaq	.LC4(%rip), %rdi
	call	__assert_fail@PLT
	.cfi_endproc
.LFE5807:
	.size	_Z15axpb_simd_m_mnmILi31EEl14axpb_options_tfPff, .-_Z15axpb_simd_m_mnmILi31EEl14axpb_options_tfPff
	.section	.rodata._Z11axpb_simd_cILi31EEl14axpb_options_tfPff.str1.8,"aMS",@progbits,1
	.align 8
.LC99:
	.string	"long int axpb_simd_c(axpb_options_t, float, float*, float) [with int c = 31]"
	.section	.text._Z11axpb_simd_cILi31EEl14axpb_options_tfPff,"axG",@progbits,_Z11axpb_simd_cILi31EEl14axpb_options_tfPff,comdat
	.p2align 4
	.weak	_Z11axpb_simd_cILi31EEl14axpb_options_tfPff
	.type	_Z11axpb_simd_cILi31EEl14axpb_options_tfPff, @function
_Z11axpb_simd_cILi31EEl14axpb_options_tfPff:
.LFB5806:
	.cfi_startproc
	endbr64
	pushq	%rbp
	.cfi_def_cfa_offset 16
	.cfi_offset 6, -16
	movq	%rsp, %rbp
	.cfi_def_cfa_register 6
	andq	$-64, %rsp
	cmpq	$496, 56(%rbp)
	jne	.L1037
	movq	32(%rbp), %r8
	cmpq	$1, %r8
	jne	.L1038
	movq	64(%rbp), %rsi
#APP
# 153 "axpb.cc" 1
	# axpb_simd_c<$31>: ax+c loop begin
# 0 "" 2
#NO_APP
	testq	%rsi, %rsi
	jle	.L1029
	vbroadcastss	%xmm0, %zmm2
	vbroadcastss	%xmm1, %zmm1
	leaq	-1(%rsi), %r9
	cmpq	$2, %rsi
	jle	.L1031
	leaq	1984(%rdi), %rdx
.L1027:
	movq	%rdi, %rax
	.p2align 4,,10
	.p2align 3
.L1026:
	vmovaps	%zmm2, %zmm0
	vfmadd132ps	(%rax), %zmm1, %zmm0
	addq	$64, %rax
	vfmadd132ps	%zmm2, %zmm1, %zmm0
	vmovups	%zmm0, -64(%rax)
	cmpq	%rdx, %rax
	jne	.L1026
	leaq	1(%r8), %rcx
	addq	$2, %r8
	cmpq	%r8, %r9
	jg	.L1027
	.p2align 4,,10
	.p2align 3
.L1030:
	movq	%rdi, %rax
	.p2align 4,,10
	.p2align 3
.L1028:
	vmovaps	%zmm2, %zmm0
	vfmadd132ps	(%rax), %zmm1, %zmm0
	addq	$64, %rax
	vmovups	%zmm0, -64(%rax)
	cmpq	%rdx, %rax
	jne	.L1028
	incq	%rcx
	cmpq	%rcx, %rsi
	jg	.L1030
	vzeroupper
.L1029:
#APP
# 159 "axpb.cc" 1
	# axpb_simd_c<$31>: ax+c loop end
# 0 "" 2
#NO_APP
	xorl	%eax, %eax
	leave
	.cfi_remember_state
	.cfi_def_cfa 7, 8
	ret
.L1031:
	.cfi_restore_state
	xorl	%ecx, %ecx
	leaq	1984(%rdi), %rdx
	jmp	.L1030
.L1037:
	leaq	.LC99(%rip), %rcx
	movl	$149, %edx
	leaq	.LC1(%rip), %rsi
	leaq	.LC10(%rip), %rdi
	call	__assert_fail@PLT
.L1038:
	leaq	.LC99(%rip), %rcx
	movl	$150, %edx
	leaq	.LC1(%rip), %rsi
	leaq	.LC4(%rip), %rdi
	call	__assert_fail@PLT
	.cfi_endproc
.LFE5806:
	.size	_Z11axpb_simd_cILi31EEl14axpb_options_tfPff, .-_Z11axpb_simd_cILi31EEl14axpb_options_tfPff
	.section	.rodata._Z15axpb_simd_m_mnmILi32EEl14axpb_options_tfPff.str1.8,"aMS",@progbits,1
	.align 8
.LC100:
	.string	"long int axpb_simd_m_mnm(axpb_options_t, float, float*, float) [with int c = 32]"
	.section	.text._Z15axpb_simd_m_mnmILi32EEl14axpb_options_tfPff,"axG",@progbits,_Z15axpb_simd_m_mnmILi32EEl14axpb_options_tfPff,comdat
	.p2align 4
	.weak	_Z15axpb_simd_m_mnmILi32EEl14axpb_options_tfPff
	.type	_Z15axpb_simd_m_mnmILi32EEl14axpb_options_tfPff, @function
_Z15axpb_simd_m_mnmILi32EEl14axpb_options_tfPff:
.LFB5810:
	.cfi_startproc
	endbr64
	pushq	%rbp
	.cfi_def_cfa_offset 16
	.cfi_offset 6, -16
	movq	%rdi, %rsi
	movq	%rsp, %rbp
	.cfi_def_cfa_register 6
	movq	56(%rbp), %rax
	movq	64(%rbp), %rdi
	andq	$-64, %rsp
	testl	$511, %eax
	jne	.L1059
	cmpq	$1, 32(%rbp)
	jne	.L1060
	testq	%rax, %rax
	leaq	15(%rax), %r10
	cmovns	%rax, %r10
	leaq	2048(%rsi), %rdx
	sarq	$4, %r10
	xorl	%r9d, %r9d
	vbroadcastss	%xmm0, %zmm2
	vbroadcastss	%xmm1, %zmm1
	leaq	-1(%rdi), %r11
	cmpq	$15, %rax
	jle	.L1053
.L1045:
#APP
# 255 "axpb.cc" 1
	# axpb_simd_m_mnm<$32>: ax+c inner loop begin
# 0 "" 2
#NO_APP
	testq	%rdi, %rdi
	jle	.L1050
	cmpq	$2, %rdi
	jle	.L1052
	movl	$1, %r8d
.L1048:
	movq	%rsi, %rax
	.p2align 4,,10
	.p2align 3
.L1047:
	vmovaps	%zmm2, %zmm0
	vfmadd132ps	(%rax), %zmm1, %zmm0
	addq	$64, %rax
	vfmadd132ps	%zmm2, %zmm1, %zmm0
	vmovups	%zmm0, -64(%rax)
	cmpq	%rdx, %rax
	jne	.L1047
	leaq	1(%r8), %rcx
	addq	$2, %r8
	cmpq	%r8, %r11
	jg	.L1048
	.p2align 4,,10
	.p2align 3
.L1051:
	movq	%rsi, %rax
	.p2align 4,,10
	.p2align 3
.L1049:
	vmovaps	%zmm2, %zmm0
	vfmadd132ps	(%rax), %zmm1, %zmm0
	addq	$64, %rax
	vmovups	%zmm0, -64(%rax)
	cmpq	%rdx, %rax
	jne	.L1049
	incq	%rcx
	cmpq	%rcx, %rdi
	jg	.L1051
.L1050:
#APP
# 261 "axpb.cc" 1
	# axpb_simd_m_mnm<$32>: ax+c inner loop end
# 0 "" 2
#NO_APP
	addq	$32, %r9
	addq	$2048, %rsi
	addq	$2048, %rdx
	cmpq	%r9, %r10
	jg	.L1045
.L1053:
	xorl	%eax, %eax
	vzeroupper
	leave
	.cfi_remember_state
	.cfi_def_cfa 7, 8
	ret
.L1052:
	.cfi_restore_state
	xorl	%ecx, %ecx
	jmp	.L1051
.L1059:
	leaq	.LC100(%rip), %rcx
	movl	$251, %edx
	leaq	.LC1(%rip), %rsi
	leaq	.LC8(%rip), %rdi
	call	__assert_fail@PLT
.L1060:
	leaq	.LC100(%rip), %rcx
	movl	$252, %edx
	leaq	.LC1(%rip), %rsi
	leaq	.LC4(%rip), %rdi
	call	__assert_fail@PLT
	.cfi_endproc
.LFE5810:
	.size	_Z15axpb_simd_m_mnmILi32EEl14axpb_options_tfPff, .-_Z15axpb_simd_m_mnmILi32EEl14axpb_options_tfPff
	.section	.rodata._Z11axpb_simd_cILi32EEl14axpb_options_tfPff.str1.8,"aMS",@progbits,1
	.align 8
.LC101:
	.string	"long int axpb_simd_c(axpb_options_t, float, float*, float) [with int c = 32]"
	.section	.text._Z11axpb_simd_cILi32EEl14axpb_options_tfPff,"axG",@progbits,_Z11axpb_simd_cILi32EEl14axpb_options_tfPff,comdat
	.p2align 4
	.weak	_Z11axpb_simd_cILi32EEl14axpb_options_tfPff
	.type	_Z11axpb_simd_cILi32EEl14axpb_options_tfPff, @function
_Z11axpb_simd_cILi32EEl14axpb_options_tfPff:
.LFB5809:
	.cfi_startproc
	endbr64
	pushq	%rbp
	.cfi_def_cfa_offset 16
	.cfi_offset 6, -16
	movq	%rsp, %rbp
	.cfi_def_cfa_register 6
	andq	$-64, %rsp
	cmpq	$512, 56(%rbp)
	jne	.L1077
	movq	32(%rbp), %r8
	cmpq	$1, %r8
	jne	.L1078
	movq	64(%rbp), %rsi
#APP
# 153 "axpb.cc" 1
	# axpb_simd_c<$32>: ax+c loop begin
# 0 "" 2
#NO_APP
	testq	%rsi, %rsi
	jle	.L1069
	vbroadcastss	%xmm0, %zmm2
	vbroadcastss	%xmm1, %zmm1
	leaq	-1(%rsi), %r9
	cmpq	$2, %rsi
	jle	.L1071
	leaq	2048(%rdi), %rdx
.L1067:
	movq	%rdi, %rax
	.p2align 4,,10
	.p2align 3
.L1066:
	vmovaps	%zmm2, %zmm0
	vfmadd132ps	(%rax), %zmm1, %zmm0
	addq	$64, %rax
	vfmadd132ps	%zmm2, %zmm1, %zmm0
	vmovups	%zmm0, -64(%rax)
	cmpq	%rdx, %rax
	jne	.L1066
	leaq	1(%r8), %rcx
	addq	$2, %r8
	cmpq	%r8, %r9
	jg	.L1067
	.p2align 4,,10
	.p2align 3
.L1070:
	movq	%rdi, %rax
	.p2align 4,,10
	.p2align 3
.L1068:
	vmovaps	%zmm2, %zmm0
	vfmadd132ps	(%rax), %zmm1, %zmm0
	addq	$64, %rax
	vmovups	%zmm0, -64(%rax)
	cmpq	%rdx, %rax
	jne	.L1068
	incq	%rcx
	cmpq	%rcx, %rsi
	jg	.L1070
	vzeroupper
.L1069:
#APP
# 159 "axpb.cc" 1
	# axpb_simd_c<$32>: ax+c loop end
# 0 "" 2
#NO_APP
	xorl	%eax, %eax
	leave
	.cfi_remember_state
	.cfi_def_cfa 7, 8
	ret
.L1071:
	.cfi_restore_state
	xorl	%ecx, %ecx
	leaq	2048(%rdi), %rdx
	jmp	.L1070
.L1077:
	leaq	.LC101(%rip), %rcx
	movl	$149, %edx
	leaq	.LC1(%rip), %rsi
	leaq	.LC10(%rip), %rdi
	call	__assert_fail@PLT
.L1078:
	leaq	.LC101(%rip), %rcx
	movl	$150, %edx
	leaq	.LC1(%rip), %rsi
	leaq	.LC4(%rip), %rdi
	call	__assert_fail@PLT
	.cfi_endproc
.LFE5809:
	.size	_Z11axpb_simd_cILi32EEl14axpb_options_tfPff, .-_Z11axpb_simd_cILi32EEl14axpb_options_tfPff
	.section	.rodata._Z24axpb_simd_parallel_m_mnmILi33EEl14axpb_options_tfPff.str1.8,"aMS",@progbits,1
	.align 8
.LC102:
	.string	"long int axpb_simd_parallel_m_mnm(axpb_options_t, float, float*, float) [with int c = 33]"
	.section	.text._Z24axpb_simd_parallel_m_mnmILi33EEl14axpb_options_tfPff,"axG",@progbits,_Z24axpb_simd_parallel_m_mnmILi33EEl14axpb_options_tfPff,comdat
	.p2align 4
	.weak	_Z24axpb_simd_parallel_m_mnmILi33EEl14axpb_options_tfPff
	.type	_Z24axpb_simd_parallel_m_mnmILi33EEl14axpb_options_tfPff, @function
_Z24axpb_simd_parallel_m_mnmILi33EEl14axpb_options_tfPff:
.LFB5814:
	.cfi_startproc
	endbr64
	pushq	%rax
	.cfi_def_cfa_offset 16
	popq	%rax
	.cfi_def_cfa_offset 8
	leaq	.LC102(%rip), %rcx
	movl	$287, %edx
	leaq	.LC1(%rip), %rsi
	leaq	.LC6(%rip), %rdi
	subq	$8, %rsp
	.cfi_def_cfa_offset 16
	call	__assert_fail@PLT
	.cfi_endproc
.LFE5814:
	.size	_Z24axpb_simd_parallel_m_mnmILi33EEl14axpb_options_tfPff, .-_Z24axpb_simd_parallel_m_mnmILi33EEl14axpb_options_tfPff
	.section	.rodata._Z15axpb_simd_m_mnmILi33EEl14axpb_options_tfPff.str1.8,"aMS",@progbits,1
	.align 8
.LC103:
	.string	"long int axpb_simd_m_mnm(axpb_options_t, float, float*, float) [with int c = 33]"
	.section	.text._Z15axpb_simd_m_mnmILi33EEl14axpb_options_tfPff,"axG",@progbits,_Z15axpb_simd_m_mnmILi33EEl14axpb_options_tfPff,comdat
	.p2align 4
	.weak	_Z15axpb_simd_m_mnmILi33EEl14axpb_options_tfPff
	.type	_Z15axpb_simd_m_mnmILi33EEl14axpb_options_tfPff, @function
_Z15axpb_simd_m_mnmILi33EEl14axpb_options_tfPff:
.LFB5813:
	.cfi_startproc
	endbr64
	pushq	%rbp
	.cfi_def_cfa_offset 16
	.cfi_offset 6, -16
	movabsq	$1117984489315730401, %rdx
	movq	%rdi, %rsi
	movq	%rsp, %rbp
	.cfi_def_cfa_register 6
	movq	56(%rbp), %rcx
	movq	64(%rbp), %rdi
	movq	%rcx, %rax
	imulq	%rdx
	andq	$-64, %rsp
	movq	%rdx, %rax
	movq	%rcx, %rdx
	sarq	$5, %rax
	sarq	$63, %rdx
	subq	%rdx, %rax
	imulq	$528, %rax, %rax
	cmpq	%rax, %rcx
	jne	.L1101
	cmpq	$1, 32(%rbp)
	jne	.L1102
	testq	%rcx, %rcx
	leaq	15(%rcx), %r10
	cmovns	%rcx, %r10
	leaq	2112(%rsi), %rdx
	sarq	$4, %r10
	xorl	%r8d, %r8d
	vbroadcastss	%xmm0, %zmm2
	vbroadcastss	%xmm1, %zmm1
	leaq	-1(%rdi), %r11
	cmpq	$15, %rcx
	jle	.L1095
.L1087:
#APP
# 255 "axpb.cc" 1
	# axpb_simd_m_mnm<$33>: ax+c inner loop begin
# 0 "" 2
#NO_APP
	testq	%rdi, %rdi
	jle	.L1092
	cmpq	$2, %rdi
	jle	.L1094
	movl	$1, %r9d
.L1090:
	movq	%rsi, %rax
	.p2align 4,,10
	.p2align 3
.L1089:
	vmovaps	%zmm2, %zmm0
	vfmadd132ps	(%rax), %zmm1, %zmm0
	addq	$64, %rax
	vfmadd132ps	%zmm2, %zmm1, %zmm0
	vmovups	%zmm0, -64(%rax)
	cmpq	%rdx, %rax
	jne	.L1089
	leaq	1(%r9), %rcx
	addq	$2, %r9
	cmpq	%r9, %r11
	jg	.L1090
	.p2align 4,,10
	.p2align 3
.L1093:
	movq	%rsi, %rax
	.p2align 4,,10
	.p2align 3
.L1091:
	vmovaps	%zmm2, %zmm0
	vfmadd132ps	(%rax), %zmm1, %zmm0
	addq	$64, %rax
	vmovups	%zmm0, -64(%rax)
	cmpq	%rdx, %rax
	jne	.L1091
	incq	%rcx
	cmpq	%rcx, %rdi
	jg	.L1093
.L1092:
#APP
# 261 "axpb.cc" 1
	# axpb_simd_m_mnm<$33>: ax+c inner loop end
# 0 "" 2
#NO_APP
	addq	$33, %r8
	addq	$2112, %rsi
	addq	$2112, %rdx
	cmpq	%r8, %r10
	jg	.L1087
.L1095:
	xorl	%eax, %eax
	vzeroupper
	leave
	.cfi_remember_state
	.cfi_def_cfa 7, 8
	ret
.L1094:
	.cfi_restore_state
	xorl	%ecx, %ecx
	jmp	.L1093
.L1101:
	leaq	.LC103(%rip), %rcx
	movl	$251, %edx
	leaq	.LC1(%rip), %rsi
	leaq	.LC8(%rip), %rdi
	call	__assert_fail@PLT
.L1102:
	leaq	.LC103(%rip), %rcx
	movl	$252, %edx
	leaq	.LC1(%rip), %rsi
	leaq	.LC4(%rip), %rdi
	call	__assert_fail@PLT
	.cfi_endproc
.LFE5813:
	.size	_Z15axpb_simd_m_mnmILi33EEl14axpb_options_tfPff, .-_Z15axpb_simd_m_mnmILi33EEl14axpb_options_tfPff
	.section	.rodata._Z11axpb_simd_cILi33EEl14axpb_options_tfPff.str1.8,"aMS",@progbits,1
	.align 8
.LC104:
	.string	"long int axpb_simd_c(axpb_options_t, float, float*, float) [with int c = 33]"
	.section	.text._Z11axpb_simd_cILi33EEl14axpb_options_tfPff,"axG",@progbits,_Z11axpb_simd_cILi33EEl14axpb_options_tfPff,comdat
	.p2align 4
	.weak	_Z11axpb_simd_cILi33EEl14axpb_options_tfPff
	.type	_Z11axpb_simd_cILi33EEl14axpb_options_tfPff, @function
_Z11axpb_simd_cILi33EEl14axpb_options_tfPff:
.LFB5812:
	.cfi_startproc
	endbr64
	pushq	%rbp
	.cfi_def_cfa_offset 16
	.cfi_offset 6, -16
	movq	%rsp, %rbp
	.cfi_def_cfa_register 6
	andq	$-64, %rsp
	cmpq	$528, 56(%rbp)
	jne	.L1119
	movq	32(%rbp), %r8
	cmpq	$1, %r8
	jne	.L1120
	movq	64(%rbp), %rsi
#APP
# 153 "axpb.cc" 1
	# axpb_simd_c<$33>: ax+c loop begin
# 0 "" 2
#NO_APP
	testq	%rsi, %rsi
	jle	.L1111
	vbroadcastss	%xmm0, %zmm2
	vbroadcastss	%xmm1, %zmm1
	leaq	-1(%rsi), %r9
	cmpq	$2, %rsi
	jle	.L1113
	leaq	2112(%rdi), %rdx
.L1109:
	movq	%rdi, %rax
	.p2align 4,,10
	.p2align 3
.L1108:
	vmovaps	%zmm2, %zmm0
	vfmadd132ps	(%rax), %zmm1, %zmm0
	addq	$64, %rax
	vfmadd132ps	%zmm2, %zmm1, %zmm0
	vmovups	%zmm0, -64(%rax)
	cmpq	%rdx, %rax
	jne	.L1108
	leaq	1(%r8), %rcx
	addq	$2, %r8
	cmpq	%r8, %r9
	jg	.L1109
	.p2align 4,,10
	.p2align 3
.L1112:
	movq	%rdi, %rax
	.p2align 4,,10
	.p2align 3
.L1110:
	vmovaps	%zmm2, %zmm0
	vfmadd132ps	(%rax), %zmm1, %zmm0
	addq	$64, %rax
	vmovups	%zmm0, -64(%rax)
	cmpq	%rdx, %rax
	jne	.L1110
	incq	%rcx
	cmpq	%rcx, %rsi
	jg	.L1112
	vzeroupper
.L1111:
#APP
# 159 "axpb.cc" 1
	# axpb_simd_c<$33>: ax+c loop end
# 0 "" 2
#NO_APP
	xorl	%eax, %eax
	leave
	.cfi_remember_state
	.cfi_def_cfa 7, 8
	ret
.L1113:
	.cfi_restore_state
	xorl	%ecx, %ecx
	leaq	2112(%rdi), %rdx
	jmp	.L1112
.L1119:
	leaq	.LC104(%rip), %rcx
	movl	$149, %edx
	leaq	.LC1(%rip), %rsi
	leaq	.LC10(%rip), %rdi
	call	__assert_fail@PLT
.L1120:
	leaq	.LC104(%rip), %rcx
	movl	$150, %edx
	leaq	.LC1(%rip), %rsi
	leaq	.LC4(%rip), %rdi
	call	__assert_fail@PLT
	.cfi_endproc
.LFE5812:
	.size	_Z11axpb_simd_cILi33EEl14axpb_options_tfPff, .-_Z11axpb_simd_cILi33EEl14axpb_options_tfPff
	.section	.rodata._Z24axpb_simd_parallel_m_mnmILi34EEl14axpb_options_tfPff.str1.8,"aMS",@progbits,1
	.align 8
.LC105:
	.string	"long int axpb_simd_parallel_m_mnm(axpb_options_t, float, float*, float) [with int c = 34]"
	.section	.text._Z24axpb_simd_parallel_m_mnmILi34EEl14axpb_options_tfPff,"axG",@progbits,_Z24axpb_simd_parallel_m_mnmILi34EEl14axpb_options_tfPff,comdat
	.p2align 4
	.weak	_Z24axpb_simd_parallel_m_mnmILi34EEl14axpb_options_tfPff
	.type	_Z24axpb_simd_parallel_m_mnmILi34EEl14axpb_options_tfPff, @function
_Z24axpb_simd_parallel_m_mnmILi34EEl14axpb_options_tfPff:
.LFB5817:
	.cfi_startproc
	endbr64
	pushq	%rax
	.cfi_def_cfa_offset 16
	popq	%rax
	.cfi_def_cfa_offset 8
	leaq	.LC105(%rip), %rcx
	movl	$287, %edx
	leaq	.LC1(%rip), %rsi
	leaq	.LC6(%rip), %rdi
	subq	$8, %rsp
	.cfi_def_cfa_offset 16
	call	__assert_fail@PLT
	.cfi_endproc
.LFE5817:
	.size	_Z24axpb_simd_parallel_m_mnmILi34EEl14axpb_options_tfPff, .-_Z24axpb_simd_parallel_m_mnmILi34EEl14axpb_options_tfPff
	.section	.rodata._Z15axpb_simd_m_mnmILi34EEl14axpb_options_tfPff.str1.8,"aMS",@progbits,1
	.align 8
.LC106:
	.string	"long int axpb_simd_m_mnm(axpb_options_t, float, float*, float) [with int c = 34]"
	.section	.text._Z15axpb_simd_m_mnmILi34EEl14axpb_options_tfPff,"axG",@progbits,_Z15axpb_simd_m_mnmILi34EEl14axpb_options_tfPff,comdat
	.p2align 4
	.weak	_Z15axpb_simd_m_mnmILi34EEl14axpb_options_tfPff
	.type	_Z15axpb_simd_m_mnmILi34EEl14axpb_options_tfPff, @function
_Z15axpb_simd_m_mnmILi34EEl14axpb_options_tfPff:
.LFB5816:
	.cfi_startproc
	endbr64
	pushq	%rbp
	.cfi_def_cfa_offset 16
	.cfi_offset 6, -16
	movabsq	$8680820740569200761, %rdx
	movq	%rdi, %rsi
	movq	%rsp, %rbp
	.cfi_def_cfa_register 6
	movq	56(%rbp), %rcx
	movq	64(%rbp), %rdi
	movq	%rcx, %rax
	imulq	%rdx
	andq	$-64, %rsp
	movq	%rdx, %rax
	movq	%rcx, %rdx
	sarq	$8, %rax
	sarq	$63, %rdx
	subq	%rdx, %rax
	imulq	$544, %rax, %rax
	cmpq	%rax, %rcx
	jne	.L1143
	cmpq	$1, 32(%rbp)
	jne	.L1144
	testq	%rcx, %rcx
	leaq	15(%rcx), %r10
	cmovns	%rcx, %r10
	leaq	2176(%rsi), %rdx
	sarq	$4, %r10
	xorl	%r8d, %r8d
	vbroadcastss	%xmm0, %zmm2
	vbroadcastss	%xmm1, %zmm1
	leaq	-1(%rdi), %r11
	cmpq	$15, %rcx
	jle	.L1137
.L1129:
#APP
# 255 "axpb.cc" 1
	# axpb_simd_m_mnm<$34>: ax+c inner loop begin
# 0 "" 2
#NO_APP
	testq	%rdi, %rdi
	jle	.L1134
	cmpq	$2, %rdi
	jle	.L1136
	movl	$1, %r9d
.L1132:
	movq	%rsi, %rax
	.p2align 4,,10
	.p2align 3
.L1131:
	vmovaps	%zmm2, %zmm0
	vfmadd132ps	(%rax), %zmm1, %zmm0
	addq	$64, %rax
	vfmadd132ps	%zmm2, %zmm1, %zmm0
	vmovups	%zmm0, -64(%rax)
	cmpq	%rdx, %rax
	jne	.L1131
	leaq	1(%r9), %rcx
	addq	$2, %r9
	cmpq	%r9, %r11
	jg	.L1132
	.p2align 4,,10
	.p2align 3
.L1135:
	movq	%rsi, %rax
	.p2align 4,,10
	.p2align 3
.L1133:
	vmovaps	%zmm2, %zmm0
	vfmadd132ps	(%rax), %zmm1, %zmm0
	addq	$64, %rax
	vmovups	%zmm0, -64(%rax)
	cmpq	%rdx, %rax
	jne	.L1133
	incq	%rcx
	cmpq	%rcx, %rdi
	jg	.L1135
.L1134:
#APP
# 261 "axpb.cc" 1
	# axpb_simd_m_mnm<$34>: ax+c inner loop end
# 0 "" 2
#NO_APP
	addq	$34, %r8
	addq	$2176, %rsi
	addq	$2176, %rdx
	cmpq	%r8, %r10
	jg	.L1129
.L1137:
	xorl	%eax, %eax
	vzeroupper
	leave
	.cfi_remember_state
	.cfi_def_cfa 7, 8
	ret
.L1136:
	.cfi_restore_state
	xorl	%ecx, %ecx
	jmp	.L1135
.L1143:
	leaq	.LC106(%rip), %rcx
	movl	$251, %edx
	leaq	.LC1(%rip), %rsi
	leaq	.LC8(%rip), %rdi
	call	__assert_fail@PLT
.L1144:
	leaq	.LC106(%rip), %rcx
	movl	$252, %edx
	leaq	.LC1(%rip), %rsi
	leaq	.LC4(%rip), %rdi
	call	__assert_fail@PLT
	.cfi_endproc
.LFE5816:
	.size	_Z15axpb_simd_m_mnmILi34EEl14axpb_options_tfPff, .-_Z15axpb_simd_m_mnmILi34EEl14axpb_options_tfPff
	.section	.rodata._Z11axpb_simd_cILi34EEl14axpb_options_tfPff.str1.8,"aMS",@progbits,1
	.align 8
.LC107:
	.string	"long int axpb_simd_c(axpb_options_t, float, float*, float) [with int c = 34]"
	.section	.text._Z11axpb_simd_cILi34EEl14axpb_options_tfPff,"axG",@progbits,_Z11axpb_simd_cILi34EEl14axpb_options_tfPff,comdat
	.p2align 4
	.weak	_Z11axpb_simd_cILi34EEl14axpb_options_tfPff
	.type	_Z11axpb_simd_cILi34EEl14axpb_options_tfPff, @function
_Z11axpb_simd_cILi34EEl14axpb_options_tfPff:
.LFB5815:
	.cfi_startproc
	endbr64
	pushq	%rbp
	.cfi_def_cfa_offset 16
	.cfi_offset 6, -16
	movq	%rsp, %rbp
	.cfi_def_cfa_register 6
	andq	$-64, %rsp
	cmpq	$544, 56(%rbp)
	jne	.L1161
	movq	32(%rbp), %r8
	cmpq	$1, %r8
	jne	.L1162
	movq	64(%rbp), %rsi
#APP
# 153 "axpb.cc" 1
	# axpb_simd_c<$34>: ax+c loop begin
# 0 "" 2
#NO_APP
	testq	%rsi, %rsi
	jle	.L1153
	vbroadcastss	%xmm0, %zmm2
	vbroadcastss	%xmm1, %zmm1
	leaq	-1(%rsi), %r9
	cmpq	$2, %rsi
	jle	.L1155
	leaq	2176(%rdi), %rdx
.L1151:
	movq	%rdi, %rax
	.p2align 4,,10
	.p2align 3
.L1150:
	vmovaps	%zmm2, %zmm0
	vfmadd132ps	(%rax), %zmm1, %zmm0
	addq	$64, %rax
	vfmadd132ps	%zmm2, %zmm1, %zmm0
	vmovups	%zmm0, -64(%rax)
	cmpq	%rdx, %rax
	jne	.L1150
	leaq	1(%r8), %rcx
	addq	$2, %r8
	cmpq	%r8, %r9
	jg	.L1151
	.p2align 4,,10
	.p2align 3
.L1154:
	movq	%rdi, %rax
	.p2align 4,,10
	.p2align 3
.L1152:
	vmovaps	%zmm2, %zmm0
	vfmadd132ps	(%rax), %zmm1, %zmm0
	addq	$64, %rax
	vmovups	%zmm0, -64(%rax)
	cmpq	%rdx, %rax
	jne	.L1152
	incq	%rcx
	cmpq	%rcx, %rsi
	jg	.L1154
	vzeroupper
.L1153:
#APP
# 159 "axpb.cc" 1
	# axpb_simd_c<$34>: ax+c loop end
# 0 "" 2
#NO_APP
	xorl	%eax, %eax
	leave
	.cfi_remember_state
	.cfi_def_cfa 7, 8
	ret
.L1155:
	.cfi_restore_state
	xorl	%ecx, %ecx
	leaq	2176(%rdi), %rdx
	jmp	.L1154
.L1161:
	leaq	.LC107(%rip), %rcx
	movl	$149, %edx
	leaq	.LC1(%rip), %rsi
	leaq	.LC10(%rip), %rdi
	call	__assert_fail@PLT
.L1162:
	leaq	.LC107(%rip), %rcx
	movl	$150, %edx
	leaq	.LC1(%rip), %rsi
	leaq	.LC4(%rip), %rdi
	call	__assert_fail@PLT
	.cfi_endproc
.LFE5815:
	.size	_Z11axpb_simd_cILi34EEl14axpb_options_tfPff, .-_Z11axpb_simd_cILi34EEl14axpb_options_tfPff
	.section	.rodata._Z24axpb_simd_parallel_m_mnmILi35EEl14axpb_options_tfPff.str1.8,"aMS",@progbits,1
	.align 8
.LC108:
	.string	"long int axpb_simd_parallel_m_mnm(axpb_options_t, float, float*, float) [with int c = 35]"
	.section	.text._Z24axpb_simd_parallel_m_mnmILi35EEl14axpb_options_tfPff,"axG",@progbits,_Z24axpb_simd_parallel_m_mnmILi35EEl14axpb_options_tfPff,comdat
	.p2align 4
	.weak	_Z24axpb_simd_parallel_m_mnmILi35EEl14axpb_options_tfPff
	.type	_Z24axpb_simd_parallel_m_mnmILi35EEl14axpb_options_tfPff, @function
_Z24axpb_simd_parallel_m_mnmILi35EEl14axpb_options_tfPff:
.LFB5820:
	.cfi_startproc
	endbr64
	pushq	%rax
	.cfi_def_cfa_offset 16
	popq	%rax
	.cfi_def_cfa_offset 8
	leaq	.LC108(%rip), %rcx
	movl	$287, %edx
	leaq	.LC1(%rip), %rsi
	leaq	.LC6(%rip), %rdi
	subq	$8, %rsp
	.cfi_def_cfa_offset 16
	call	__assert_fail@PLT
	.cfi_endproc
.LFE5820:
	.size	_Z24axpb_simd_parallel_m_mnmILi35EEl14axpb_options_tfPff, .-_Z24axpb_simd_parallel_m_mnmILi35EEl14axpb_options_tfPff
	.section	.rodata._Z15axpb_simd_m_mnmILi35EEl14axpb_options_tfPff.str1.8,"aMS",@progbits,1
	.align 8
.LC109:
	.string	"long int axpb_simd_m_mnm(axpb_options_t, float, float*, float) [with int c = 35]"
	.section	.text._Z15axpb_simd_m_mnmILi35EEl14axpb_options_tfPff,"axG",@progbits,_Z15axpb_simd_m_mnmILi35EEl14axpb_options_tfPff,comdat
	.p2align 4
	.weak	_Z15axpb_simd_m_mnmILi35EEl14axpb_options_tfPff
	.type	_Z15axpb_simd_m_mnmILi35EEl14axpb_options_tfPff, @function
_Z15axpb_simd_m_mnmILi35EEl14axpb_options_tfPff:
.LFB5819:
	.cfi_startproc
	endbr64
	pushq	%rbp
	.cfi_def_cfa_offset 16
	.cfi_offset 6, -16
	movabsq	$1054099661354831521, %rdx
	movq	%rdi, %rsi
	movq	%rsp, %rbp
	.cfi_def_cfa_register 6
	movq	56(%rbp), %rcx
	movq	64(%rbp), %rdi
	movq	%rcx, %rax
	imulq	%rdx
	andq	$-64, %rsp
	movq	%rdx, %rax
	movq	%rcx, %rdx
	sarq	$5, %rax
	sarq	$63, %rdx
	subq	%rdx, %rax
	imulq	$560, %rax, %rax
	cmpq	%rax, %rcx
	jne	.L1185
	cmpq	$1, 32(%rbp)
	jne	.L1186
	testq	%rcx, %rcx
	leaq	15(%rcx), %r10
	cmovns	%rcx, %r10
	leaq	2240(%rsi), %rdx
	sarq	$4, %r10
	xorl	%r8d, %r8d
	vbroadcastss	%xmm0, %zmm2
	vbroadcastss	%xmm1, %zmm1
	leaq	-1(%rdi), %r11
	cmpq	$15, %rcx
	jle	.L1179
.L1171:
#APP
# 255 "axpb.cc" 1
	# axpb_simd_m_mnm<$35>: ax+c inner loop begin
# 0 "" 2
#NO_APP
	testq	%rdi, %rdi
	jle	.L1176
	cmpq	$2, %rdi
	jle	.L1178
	movl	$1, %r9d
.L1174:
	movq	%rsi, %rax
	.p2align 4,,10
	.p2align 3
.L1173:
	vmovaps	%zmm2, %zmm0
	vfmadd132ps	(%rax), %zmm1, %zmm0
	addq	$64, %rax
	vfmadd132ps	%zmm2, %zmm1, %zmm0
	vmovups	%zmm0, -64(%rax)
	cmpq	%rdx, %rax
	jne	.L1173
	leaq	1(%r9), %rcx
	addq	$2, %r9
	cmpq	%r9, %r11
	jg	.L1174
	.p2align 4,,10
	.p2align 3
.L1177:
	movq	%rsi, %rax
	.p2align 4,,10
	.p2align 3
.L1175:
	vmovaps	%zmm2, %zmm0
	vfmadd132ps	(%rax), %zmm1, %zmm0
	addq	$64, %rax
	vmovups	%zmm0, -64(%rax)
	cmpq	%rdx, %rax
	jne	.L1175
	incq	%rcx
	cmpq	%rcx, %rdi
	jg	.L1177
.L1176:
#APP
# 261 "axpb.cc" 1
	# axpb_simd_m_mnm<$35>: ax+c inner loop end
# 0 "" 2
#NO_APP
	addq	$35, %r8
	addq	$2240, %rsi
	addq	$2240, %rdx
	cmpq	%r8, %r10
	jg	.L1171
.L1179:
	xorl	%eax, %eax
	vzeroupper
	leave
	.cfi_remember_state
	.cfi_def_cfa 7, 8
	ret
.L1178:
	.cfi_restore_state
	xorl	%ecx, %ecx
	jmp	.L1177
.L1185:
	leaq	.LC109(%rip), %rcx
	movl	$251, %edx
	leaq	.LC1(%rip), %rsi
	leaq	.LC8(%rip), %rdi
	call	__assert_fail@PLT
.L1186:
	leaq	.LC109(%rip), %rcx
	movl	$252, %edx
	leaq	.LC1(%rip), %rsi
	leaq	.LC4(%rip), %rdi
	call	__assert_fail@PLT
	.cfi_endproc
.LFE5819:
	.size	_Z15axpb_simd_m_mnmILi35EEl14axpb_options_tfPff, .-_Z15axpb_simd_m_mnmILi35EEl14axpb_options_tfPff
	.section	.rodata._Z11axpb_simd_cILi35EEl14axpb_options_tfPff.str1.8,"aMS",@progbits,1
	.align 8
.LC110:
	.string	"long int axpb_simd_c(axpb_options_t, float, float*, float) [with int c = 35]"
	.section	.text._Z11axpb_simd_cILi35EEl14axpb_options_tfPff,"axG",@progbits,_Z11axpb_simd_cILi35EEl14axpb_options_tfPff,comdat
	.p2align 4
	.weak	_Z11axpb_simd_cILi35EEl14axpb_options_tfPff
	.type	_Z11axpb_simd_cILi35EEl14axpb_options_tfPff, @function
_Z11axpb_simd_cILi35EEl14axpb_options_tfPff:
.LFB5818:
	.cfi_startproc
	endbr64
	pushq	%rbp
	.cfi_def_cfa_offset 16
	.cfi_offset 6, -16
	movq	%rsp, %rbp
	.cfi_def_cfa_register 6
	andq	$-64, %rsp
	cmpq	$560, 56(%rbp)
	jne	.L1203
	movq	32(%rbp), %r8
	cmpq	$1, %r8
	jne	.L1204
	movq	64(%rbp), %rsi
#APP
# 153 "axpb.cc" 1
	# axpb_simd_c<$35>: ax+c loop begin
# 0 "" 2
#NO_APP
	testq	%rsi, %rsi
	jle	.L1195
	vbroadcastss	%xmm0, %zmm2
	vbroadcastss	%xmm1, %zmm1
	leaq	-1(%rsi), %r9
	cmpq	$2, %rsi
	jle	.L1197
	leaq	2240(%rdi), %rdx
.L1193:
	movq	%rdi, %rax
	.p2align 4,,10
	.p2align 3
.L1192:
	vmovaps	%zmm2, %zmm0
	vfmadd132ps	(%rax), %zmm1, %zmm0
	addq	$64, %rax
	vfmadd132ps	%zmm2, %zmm1, %zmm0
	vmovups	%zmm0, -64(%rax)
	cmpq	%rdx, %rax
	jne	.L1192
	leaq	1(%r8), %rcx
	addq	$2, %r8
	cmpq	%r8, %r9
	jg	.L1193
	.p2align 4,,10
	.p2align 3
.L1196:
	movq	%rdi, %rax
	.p2align 4,,10
	.p2align 3
.L1194:
	vmovaps	%zmm2, %zmm0
	vfmadd132ps	(%rax), %zmm1, %zmm0
	addq	$64, %rax
	vmovups	%zmm0, -64(%rax)
	cmpq	%rdx, %rax
	jne	.L1194
	incq	%rcx
	cmpq	%rcx, %rsi
	jg	.L1196
	vzeroupper
.L1195:
#APP
# 159 "axpb.cc" 1
	# axpb_simd_c<$35>: ax+c loop end
# 0 "" 2
#NO_APP
	xorl	%eax, %eax
	leave
	.cfi_remember_state
	.cfi_def_cfa 7, 8
	ret
.L1197:
	.cfi_restore_state
	xorl	%ecx, %ecx
	leaq	2240(%rdi), %rdx
	jmp	.L1196
.L1203:
	leaq	.LC110(%rip), %rcx
	movl	$149, %edx
	leaq	.LC1(%rip), %rsi
	leaq	.LC10(%rip), %rdi
	call	__assert_fail@PLT
.L1204:
	leaq	.LC110(%rip), %rcx
	movl	$150, %edx
	leaq	.LC1(%rip), %rsi
	leaq	.LC4(%rip), %rdi
	call	__assert_fail@PLT
	.cfi_endproc
.LFE5818:
	.size	_Z11axpb_simd_cILi35EEl14axpb_options_tfPff, .-_Z11axpb_simd_cILi35EEl14axpb_options_tfPff
	.section	.rodata._Z24axpb_simd_parallel_m_mnmILi36EEl14axpb_options_tfPff.str1.8,"aMS",@progbits,1
	.align 8
.LC111:
	.string	"long int axpb_simd_parallel_m_mnm(axpb_options_t, float, float*, float) [with int c = 36]"
	.section	.text._Z24axpb_simd_parallel_m_mnmILi36EEl14axpb_options_tfPff,"axG",@progbits,_Z24axpb_simd_parallel_m_mnmILi36EEl14axpb_options_tfPff,comdat
	.p2align 4
	.weak	_Z24axpb_simd_parallel_m_mnmILi36EEl14axpb_options_tfPff
	.type	_Z24axpb_simd_parallel_m_mnmILi36EEl14axpb_options_tfPff, @function
_Z24axpb_simd_parallel_m_mnmILi36EEl14axpb_options_tfPff:
.LFB5823:
	.cfi_startproc
	endbr64
	pushq	%rax
	.cfi_def_cfa_offset 16
	popq	%rax
	.cfi_def_cfa_offset 8
	leaq	.LC111(%rip), %rcx
	movl	$287, %edx
	leaq	.LC1(%rip), %rsi
	leaq	.LC6(%rip), %rdi
	subq	$8, %rsp
	.cfi_def_cfa_offset 16
	call	__assert_fail@PLT
	.cfi_endproc
.LFE5823:
	.size	_Z24axpb_simd_parallel_m_mnmILi36EEl14axpb_options_tfPff, .-_Z24axpb_simd_parallel_m_mnmILi36EEl14axpb_options_tfPff
	.section	.rodata._Z15axpb_simd_m_mnmILi36EEl14axpb_options_tfPff.str1.8,"aMS",@progbits,1
	.align 8
.LC112:
	.string	"long int axpb_simd_m_mnm(axpb_options_t, float, float*, float) [with int c = 36]"
	.section	.text._Z15axpb_simd_m_mnmILi36EEl14axpb_options_tfPff,"axG",@progbits,_Z15axpb_simd_m_mnmILi36EEl14axpb_options_tfPff,comdat
	.p2align 4
	.weak	_Z15axpb_simd_m_mnmILi36EEl14axpb_options_tfPff
	.type	_Z15axpb_simd_m_mnmILi36EEl14axpb_options_tfPff, @function
_Z15axpb_simd_m_mnmILi36EEl14axpb_options_tfPff:
.LFB5822:
	.cfi_startproc
	endbr64
	pushq	%rbp
	.cfi_def_cfa_offset 16
	.cfi_offset 6, -16
	movabsq	$1024819115206086201, %rdx
	movq	%rdi, %rsi
	movq	%rsp, %rbp
	.cfi_def_cfa_register 6
	movq	56(%rbp), %rcx
	movq	64(%rbp), %rdi
	movq	%rcx, %rax
	imulq	%rdx
	andq	$-64, %rsp
	movq	%rdx, %rax
	movq	%rcx, %rdx
	sarq	$5, %rax
	sarq	$63, %rdx
	subq	%rdx, %rax
	leaq	(%rax,%rax,8), %rax
	salq	$6, %rax
	cmpq	%rax, %rcx
	jne	.L1227
	cmpq	$1, 32(%rbp)
	jne	.L1228
	testq	%rcx, %rcx
	leaq	15(%rcx), %r10
	cmovns	%rcx, %r10
	leaq	2304(%rsi), %rdx
	sarq	$4, %r10
	xorl	%r8d, %r8d
	vbroadcastss	%xmm0, %zmm2
	vbroadcastss	%xmm1, %zmm1
	leaq	-1(%rdi), %r11
	cmpq	$15, %rcx
	jle	.L1221
.L1213:
#APP
# 255 "axpb.cc" 1
	# axpb_simd_m_mnm<$36>: ax+c inner loop begin
# 0 "" 2
#NO_APP
	testq	%rdi, %rdi
	jle	.L1218
	cmpq	$2, %rdi
	jle	.L1220
	movl	$1, %r9d
.L1216:
	movq	%rsi, %rax
	.p2align 4,,10
	.p2align 3
.L1215:
	vmovaps	%zmm2, %zmm0
	vfmadd132ps	(%rax), %zmm1, %zmm0
	addq	$64, %rax
	vfmadd132ps	%zmm2, %zmm1, %zmm0
	vmovups	%zmm0, -64(%rax)
	cmpq	%rdx, %rax
	jne	.L1215
	leaq	1(%r9), %rcx
	addq	$2, %r9
	cmpq	%r9, %r11
	jg	.L1216
	.p2align 4,,10
	.p2align 3
.L1219:
	movq	%rsi, %rax
	.p2align 4,,10
	.p2align 3
.L1217:
	vmovaps	%zmm2, %zmm0
	vfmadd132ps	(%rax), %zmm1, %zmm0
	addq	$64, %rax
	vmovups	%zmm0, -64(%rax)
	cmpq	%rdx, %rax
	jne	.L1217
	incq	%rcx
	cmpq	%rcx, %rdi
	jg	.L1219
.L1218:
#APP
# 261 "axpb.cc" 1
	# axpb_simd_m_mnm<$36>: ax+c inner loop end
# 0 "" 2
#NO_APP
	addq	$36, %r8
	addq	$2304, %rsi
	addq	$2304, %rdx
	cmpq	%r8, %r10
	jg	.L1213
.L1221:
	xorl	%eax, %eax
	vzeroupper
	leave
	.cfi_remember_state
	.cfi_def_cfa 7, 8
	ret
.L1220:
	.cfi_restore_state
	xorl	%ecx, %ecx
	jmp	.L1219
.L1227:
	leaq	.LC112(%rip), %rcx
	movl	$251, %edx
	leaq	.LC1(%rip), %rsi
	leaq	.LC8(%rip), %rdi
	call	__assert_fail@PLT
.L1228:
	leaq	.LC112(%rip), %rcx
	movl	$252, %edx
	leaq	.LC1(%rip), %rsi
	leaq	.LC4(%rip), %rdi
	call	__assert_fail@PLT
	.cfi_endproc
.LFE5822:
	.size	_Z15axpb_simd_m_mnmILi36EEl14axpb_options_tfPff, .-_Z15axpb_simd_m_mnmILi36EEl14axpb_options_tfPff
	.section	.rodata._Z11axpb_simd_cILi36EEl14axpb_options_tfPff.str1.8,"aMS",@progbits,1
	.align 8
.LC113:
	.string	"long int axpb_simd_c(axpb_options_t, float, float*, float) [with int c = 36]"
	.section	.text._Z11axpb_simd_cILi36EEl14axpb_options_tfPff,"axG",@progbits,_Z11axpb_simd_cILi36EEl14axpb_options_tfPff,comdat
	.p2align 4
	.weak	_Z11axpb_simd_cILi36EEl14axpb_options_tfPff
	.type	_Z11axpb_simd_cILi36EEl14axpb_options_tfPff, @function
_Z11axpb_simd_cILi36EEl14axpb_options_tfPff:
.LFB5821:
	.cfi_startproc
	endbr64
	pushq	%rbp
	.cfi_def_cfa_offset 16
	.cfi_offset 6, -16
	movq	%rsp, %rbp
	.cfi_def_cfa_register 6
	andq	$-64, %rsp
	cmpq	$576, 56(%rbp)
	jne	.L1245
	movq	32(%rbp), %r8
	cmpq	$1, %r8
	jne	.L1246
	movq	64(%rbp), %rsi
#APP
# 153 "axpb.cc" 1
	# axpb_simd_c<$36>: ax+c loop begin
# 0 "" 2
#NO_APP
	testq	%rsi, %rsi
	jle	.L1237
	vbroadcastss	%xmm0, %zmm2
	vbroadcastss	%xmm1, %zmm1
	leaq	-1(%rsi), %r9
	cmpq	$2, %rsi
	jle	.L1239
	leaq	2304(%rdi), %rdx
.L1235:
	movq	%rdi, %rax
	.p2align 4,,10
	.p2align 3
.L1234:
	vmovaps	%zmm2, %zmm0
	vfmadd132ps	(%rax), %zmm1, %zmm0
	addq	$64, %rax
	vfmadd132ps	%zmm2, %zmm1, %zmm0
	vmovups	%zmm0, -64(%rax)
	cmpq	%rdx, %rax
	jne	.L1234
	leaq	1(%r8), %rcx
	addq	$2, %r8
	cmpq	%r8, %r9
	jg	.L1235
	.p2align 4,,10
	.p2align 3
.L1238:
	movq	%rdi, %rax
	.p2align 4,,10
	.p2align 3
.L1236:
	vmovaps	%zmm2, %zmm0
	vfmadd132ps	(%rax), %zmm1, %zmm0
	addq	$64, %rax
	vmovups	%zmm0, -64(%rax)
	cmpq	%rdx, %rax
	jne	.L1236
	incq	%rcx
	cmpq	%rcx, %rsi
	jg	.L1238
	vzeroupper
.L1237:
#APP
# 159 "axpb.cc" 1
	# axpb_simd_c<$36>: ax+c loop end
# 0 "" 2
#NO_APP
	xorl	%eax, %eax
	leave
	.cfi_remember_state
	.cfi_def_cfa 7, 8
	ret
.L1239:
	.cfi_restore_state
	xorl	%ecx, %ecx
	leaq	2304(%rdi), %rdx
	jmp	.L1238
.L1245:
	leaq	.LC113(%rip), %rcx
	movl	$149, %edx
	leaq	.LC1(%rip), %rsi
	leaq	.LC10(%rip), %rdi
	call	__assert_fail@PLT
.L1246:
	leaq	.LC113(%rip), %rcx
	movl	$150, %edx
	leaq	.LC1(%rip), %rsi
	leaq	.LC4(%rip), %rdi
	call	__assert_fail@PLT
	.cfi_endproc
.LFE5821:
	.size	_Z11axpb_simd_cILi36EEl14axpb_options_tfPff, .-_Z11axpb_simd_cILi36EEl14axpb_options_tfPff
	.section	.rodata._Z24axpb_simd_parallel_m_mnmILi37EEl14axpb_options_tfPff.str1.8,"aMS",@progbits,1
	.align 8
.LC114:
	.string	"long int axpb_simd_parallel_m_mnm(axpb_options_t, float, float*, float) [with int c = 37]"
	.section	.text._Z24axpb_simd_parallel_m_mnmILi37EEl14axpb_options_tfPff,"axG",@progbits,_Z24axpb_simd_parallel_m_mnmILi37EEl14axpb_options_tfPff,comdat
	.p2align 4
	.weak	_Z24axpb_simd_parallel_m_mnmILi37EEl14axpb_options_tfPff
	.type	_Z24axpb_simd_parallel_m_mnmILi37EEl14axpb_options_tfPff, @function
_Z24axpb_simd_parallel_m_mnmILi37EEl14axpb_options_tfPff:
.LFB5826:
	.cfi_startproc
	endbr64
	pushq	%rax
	.cfi_def_cfa_offset 16
	popq	%rax
	.cfi_def_cfa_offset 8
	leaq	.LC114(%rip), %rcx
	movl	$287, %edx
	leaq	.LC1(%rip), %rsi
	leaq	.LC6(%rip), %rdi
	subq	$8, %rsp
	.cfi_def_cfa_offset 16
	call	__assert_fail@PLT
	.cfi_endproc
.LFE5826:
	.size	_Z24axpb_simd_parallel_m_mnmILi37EEl14axpb_options_tfPff, .-_Z24axpb_simd_parallel_m_mnmILi37EEl14axpb_options_tfPff
	.section	.rodata._Z15axpb_simd_m_mnmILi37EEl14axpb_options_tfPff.str1.8,"aMS",@progbits,1
	.align 8
.LC115:
	.string	"long int axpb_simd_m_mnm(axpb_options_t, float, float*, float) [with int c = 37]"
	.section	.text._Z15axpb_simd_m_mnmILi37EEl14axpb_options_tfPff,"axG",@progbits,_Z15axpb_simd_m_mnmILi37EEl14axpb_options_tfPff,comdat
	.p2align 4
	.weak	_Z15axpb_simd_m_mnmILi37EEl14axpb_options_tfPff
	.type	_Z15axpb_simd_m_mnmILi37EEl14axpb_options_tfPff, @function
_Z15axpb_simd_m_mnmILi37EEl14axpb_options_tfPff:
.LFB5825:
	.cfi_startproc
	endbr64
	pushq	%rbp
	.cfi_def_cfa_offset 16
	.cfi_offset 6, -16
	movabsq	$3988485205126389539, %rdx
	movq	%rdi, %rsi
	movq	%rsp, %rbp
	.cfi_def_cfa_register 6
	movq	56(%rbp), %rcx
	movq	64(%rbp), %rdi
	movq	%rcx, %rax
	imulq	%rdx
	andq	$-64, %rsp
	movq	%rdx, %rax
	movq	%rcx, %rdx
	sarq	$7, %rax
	sarq	$63, %rdx
	subq	%rdx, %rax
	imulq	$592, %rax, %rax
	cmpq	%rax, %rcx
	jne	.L1269
	cmpq	$1, 32(%rbp)
	jne	.L1270
	testq	%rcx, %rcx
	leaq	15(%rcx), %r10
	cmovns	%rcx, %r10
	leaq	2368(%rsi), %rdx
	sarq	$4, %r10
	xorl	%r8d, %r8d
	vbroadcastss	%xmm0, %zmm2
	vbroadcastss	%xmm1, %zmm1
	leaq	-1(%rdi), %r11
	cmpq	$15, %rcx
	jle	.L1263
.L1255:
#APP
# 255 "axpb.cc" 1
	# axpb_simd_m_mnm<$37>: ax+c inner loop begin
# 0 "" 2
#NO_APP
	testq	%rdi, %rdi
	jle	.L1260
	cmpq	$2, %rdi
	jle	.L1262
	movl	$1, %r9d
.L1258:
	movq	%rsi, %rax
	.p2align 4,,10
	.p2align 3
.L1257:
	vmovaps	%zmm2, %zmm0
	vfmadd132ps	(%rax), %zmm1, %zmm0
	addq	$64, %rax
	vfmadd132ps	%zmm2, %zmm1, %zmm0
	vmovups	%zmm0, -64(%rax)
	cmpq	%rdx, %rax
	jne	.L1257
	leaq	1(%r9), %rcx
	addq	$2, %r9
	cmpq	%r9, %r11
	jg	.L1258
	.p2align 4,,10
	.p2align 3
.L1261:
	movq	%rsi, %rax
	.p2align 4,,10
	.p2align 3
.L1259:
	vmovaps	%zmm2, %zmm0
	vfmadd132ps	(%rax), %zmm1, %zmm0
	addq	$64, %rax
	vmovups	%zmm0, -64(%rax)
	cmpq	%rdx, %rax
	jne	.L1259
	incq	%rcx
	cmpq	%rcx, %rdi
	jg	.L1261
.L1260:
#APP
# 261 "axpb.cc" 1
	# axpb_simd_m_mnm<$37>: ax+c inner loop end
# 0 "" 2
#NO_APP
	addq	$37, %r8
	addq	$2368, %rsi
	addq	$2368, %rdx
	cmpq	%r8, %r10
	jg	.L1255
.L1263:
	xorl	%eax, %eax
	vzeroupper
	leave
	.cfi_remember_state
	.cfi_def_cfa 7, 8
	ret
.L1262:
	.cfi_restore_state
	xorl	%ecx, %ecx
	jmp	.L1261
.L1269:
	leaq	.LC115(%rip), %rcx
	movl	$251, %edx
	leaq	.LC1(%rip), %rsi
	leaq	.LC8(%rip), %rdi
	call	__assert_fail@PLT
.L1270:
	leaq	.LC115(%rip), %rcx
	movl	$252, %edx
	leaq	.LC1(%rip), %rsi
	leaq	.LC4(%rip), %rdi
	call	__assert_fail@PLT
	.cfi_endproc
.LFE5825:
	.size	_Z15axpb_simd_m_mnmILi37EEl14axpb_options_tfPff, .-_Z15axpb_simd_m_mnmILi37EEl14axpb_options_tfPff
	.section	.rodata._Z11axpb_simd_cILi37EEl14axpb_options_tfPff.str1.8,"aMS",@progbits,1
	.align 8
.LC116:
	.string	"long int axpb_simd_c(axpb_options_t, float, float*, float) [with int c = 37]"
	.section	.text._Z11axpb_simd_cILi37EEl14axpb_options_tfPff,"axG",@progbits,_Z11axpb_simd_cILi37EEl14axpb_options_tfPff,comdat
	.p2align 4
	.weak	_Z11axpb_simd_cILi37EEl14axpb_options_tfPff
	.type	_Z11axpb_simd_cILi37EEl14axpb_options_tfPff, @function
_Z11axpb_simd_cILi37EEl14axpb_options_tfPff:
.LFB5824:
	.cfi_startproc
	endbr64
	pushq	%rbp
	.cfi_def_cfa_offset 16
	.cfi_offset 6, -16
	movq	%rsp, %rbp
	.cfi_def_cfa_register 6
	andq	$-64, %rsp
	cmpq	$592, 56(%rbp)
	jne	.L1287
	movq	32(%rbp), %r8
	cmpq	$1, %r8
	jne	.L1288
	movq	64(%rbp), %rsi
#APP
# 153 "axpb.cc" 1
	# axpb_simd_c<$37>: ax+c loop begin
# 0 "" 2
#NO_APP
	testq	%rsi, %rsi
	jle	.L1279
	vbroadcastss	%xmm0, %zmm2
	vbroadcastss	%xmm1, %zmm1
	leaq	-1(%rsi), %r9
	cmpq	$2, %rsi
	jle	.L1281
	leaq	2368(%rdi), %rdx
.L1277:
	movq	%rdi, %rax
	.p2align 4,,10
	.p2align 3
.L1276:
	vmovaps	%zmm2, %zmm0
	vfmadd132ps	(%rax), %zmm1, %zmm0
	addq	$64, %rax
	vfmadd132ps	%zmm2, %zmm1, %zmm0
	vmovups	%zmm0, -64(%rax)
	cmpq	%rdx, %rax
	jne	.L1276
	leaq	1(%r8), %rcx
	addq	$2, %r8
	cmpq	%r8, %r9
	jg	.L1277
	.p2align 4,,10
	.p2align 3
.L1280:
	movq	%rdi, %rax
	.p2align 4,,10
	.p2align 3
.L1278:
	vmovaps	%zmm2, %zmm0
	vfmadd132ps	(%rax), %zmm1, %zmm0
	addq	$64, %rax
	vmovups	%zmm0, -64(%rax)
	cmpq	%rdx, %rax
	jne	.L1278
	incq	%rcx
	cmpq	%rcx, %rsi
	jg	.L1280
	vzeroupper
.L1279:
#APP
# 159 "axpb.cc" 1
	# axpb_simd_c<$37>: ax+c loop end
# 0 "" 2
#NO_APP
	xorl	%eax, %eax
	leave
	.cfi_remember_state
	.cfi_def_cfa 7, 8
	ret
.L1281:
	.cfi_restore_state
	xorl	%ecx, %ecx
	leaq	2368(%rdi), %rdx
	jmp	.L1280
.L1287:
	leaq	.LC116(%rip), %rcx
	movl	$149, %edx
	leaq	.LC1(%rip), %rsi
	leaq	.LC10(%rip), %rdi
	call	__assert_fail@PLT
.L1288:
	leaq	.LC116(%rip), %rcx
	movl	$150, %edx
	leaq	.LC1(%rip), %rsi
	leaq	.LC4(%rip), %rdi
	call	__assert_fail@PLT
	.cfi_endproc
.LFE5824:
	.size	_Z11axpb_simd_cILi37EEl14axpb_options_tfPff, .-_Z11axpb_simd_cILi37EEl14axpb_options_tfPff
	.section	.rodata._Z24axpb_simd_parallel_m_mnmILi38EEl14axpb_options_tfPff.str1.8,"aMS",@progbits,1
	.align 8
.LC117:
	.string	"long int axpb_simd_parallel_m_mnm(axpb_options_t, float, float*, float) [with int c = 38]"
	.section	.text._Z24axpb_simd_parallel_m_mnmILi38EEl14axpb_options_tfPff,"axG",@progbits,_Z24axpb_simd_parallel_m_mnmILi38EEl14axpb_options_tfPff,comdat
	.p2align 4
	.weak	_Z24axpb_simd_parallel_m_mnmILi38EEl14axpb_options_tfPff
	.type	_Z24axpb_simd_parallel_m_mnmILi38EEl14axpb_options_tfPff, @function
_Z24axpb_simd_parallel_m_mnmILi38EEl14axpb_options_tfPff:
.LFB5829:
	.cfi_startproc
	endbr64
	pushq	%rax
	.cfi_def_cfa_offset 16
	popq	%rax
	.cfi_def_cfa_offset 8
	leaq	.LC117(%rip), %rcx
	movl	$287, %edx
	leaq	.LC1(%rip), %rsi
	leaq	.LC6(%rip), %rdi
	subq	$8, %rsp
	.cfi_def_cfa_offset 16
	call	__assert_fail@PLT
	.cfi_endproc
.LFE5829:
	.size	_Z24axpb_simd_parallel_m_mnmILi38EEl14axpb_options_tfPff, .-_Z24axpb_simd_parallel_m_mnmILi38EEl14axpb_options_tfPff
	.section	.rodata._Z15axpb_simd_m_mnmILi38EEl14axpb_options_tfPff.str1.8,"aMS",@progbits,1
	.align 8
.LC118:
	.string	"long int axpb_simd_m_mnm(axpb_options_t, float, float*, float) [with int c = 38]"
	.section	.text._Z15axpb_simd_m_mnmILi38EEl14axpb_options_tfPff,"axG",@progbits,_Z15axpb_simd_m_mnmILi38EEl14axpb_options_tfPff,comdat
	.p2align 4
	.weak	_Z15axpb_simd_m_mnmILi38EEl14axpb_options_tfPff
	.type	_Z15axpb_simd_m_mnmILi38EEl14axpb_options_tfPff, @function
_Z15axpb_simd_m_mnmILi38EEl14axpb_options_tfPff:
.LFB5828:
	.cfi_startproc
	endbr64
	pushq	%rbp
	.cfi_def_cfa_offset 16
	.cfi_offset 6, -16
	movabsq	$485440633518672411, %rdx
	movq	%rdi, %rsi
	movq	%rsp, %rbp
	.cfi_def_cfa_register 6
	movq	56(%rbp), %rcx
	movq	64(%rbp), %rdi
	movq	%rcx, %rax
	imulq	%rdx
	andq	$-64, %rsp
	movq	%rdx, %rax
	movq	%rcx, %rdx
	sarq	$4, %rax
	sarq	$63, %rdx
	subq	%rdx, %rax
	imulq	$608, %rax, %rax
	cmpq	%rax, %rcx
	jne	.L1311
	cmpq	$1, 32(%rbp)
	jne	.L1312
	testq	%rcx, %rcx
	leaq	15(%rcx), %r10
	cmovns	%rcx, %r10
	leaq	2432(%rsi), %rdx
	sarq	$4, %r10
	xorl	%r8d, %r8d
	vbroadcastss	%xmm0, %zmm2
	vbroadcastss	%xmm1, %zmm1
	leaq	-1(%rdi), %r11
	cmpq	$15, %rcx
	jle	.L1305
.L1297:
#APP
# 255 "axpb.cc" 1
	# axpb_simd_m_mnm<$38>: ax+c inner loop begin
# 0 "" 2
#NO_APP
	testq	%rdi, %rdi
	jle	.L1302
	cmpq	$2, %rdi
	jle	.L1304
	movl	$1, %r9d
.L1300:
	movq	%rsi, %rax
	.p2align 4,,10
	.p2align 3
.L1299:
	vmovaps	%zmm2, %zmm0
	vfmadd132ps	(%rax), %zmm1, %zmm0
	addq	$64, %rax
	vfmadd132ps	%zmm2, %zmm1, %zmm0
	vmovups	%zmm0, -64(%rax)
	cmpq	%rdx, %rax
	jne	.L1299
	leaq	1(%r9), %rcx
	addq	$2, %r9
	cmpq	%r9, %r11
	jg	.L1300
	.p2align 4,,10
	.p2align 3
.L1303:
	movq	%rsi, %rax
	.p2align 4,,10
	.p2align 3
.L1301:
	vmovaps	%zmm2, %zmm0
	vfmadd132ps	(%rax), %zmm1, %zmm0
	addq	$64, %rax
	vmovups	%zmm0, -64(%rax)
	cmpq	%rdx, %rax
	jne	.L1301
	incq	%rcx
	cmpq	%rcx, %rdi
	jg	.L1303
.L1302:
#APP
# 261 "axpb.cc" 1
	# axpb_simd_m_mnm<$38>: ax+c inner loop end
# 0 "" 2
#NO_APP
	addq	$38, %r8
	addq	$2432, %rsi
	addq	$2432, %rdx
	cmpq	%r8, %r10
	jg	.L1297
.L1305:
	xorl	%eax, %eax
	vzeroupper
	leave
	.cfi_remember_state
	.cfi_def_cfa 7, 8
	ret
.L1304:
	.cfi_restore_state
	xorl	%ecx, %ecx
	jmp	.L1303
.L1311:
	leaq	.LC118(%rip), %rcx
	movl	$251, %edx
	leaq	.LC1(%rip), %rsi
	leaq	.LC8(%rip), %rdi
	call	__assert_fail@PLT
.L1312:
	leaq	.LC118(%rip), %rcx
	movl	$252, %edx
	leaq	.LC1(%rip), %rsi
	leaq	.LC4(%rip), %rdi
	call	__assert_fail@PLT
	.cfi_endproc
.LFE5828:
	.size	_Z15axpb_simd_m_mnmILi38EEl14axpb_options_tfPff, .-_Z15axpb_simd_m_mnmILi38EEl14axpb_options_tfPff
	.section	.rodata._Z11axpb_simd_cILi38EEl14axpb_options_tfPff.str1.8,"aMS",@progbits,1
	.align 8
.LC119:
	.string	"long int axpb_simd_c(axpb_options_t, float, float*, float) [with int c = 38]"
	.section	.text._Z11axpb_simd_cILi38EEl14axpb_options_tfPff,"axG",@progbits,_Z11axpb_simd_cILi38EEl14axpb_options_tfPff,comdat
	.p2align 4
	.weak	_Z11axpb_simd_cILi38EEl14axpb_options_tfPff
	.type	_Z11axpb_simd_cILi38EEl14axpb_options_tfPff, @function
_Z11axpb_simd_cILi38EEl14axpb_options_tfPff:
.LFB5827:
	.cfi_startproc
	endbr64
	pushq	%rbp
	.cfi_def_cfa_offset 16
	.cfi_offset 6, -16
	movq	%rsp, %rbp
	.cfi_def_cfa_register 6
	andq	$-64, %rsp
	cmpq	$608, 56(%rbp)
	jne	.L1329
	movq	32(%rbp), %r8
	cmpq	$1, %r8
	jne	.L1330
	movq	64(%rbp), %rsi
#APP
# 153 "axpb.cc" 1
	# axpb_simd_c<$38>: ax+c loop begin
# 0 "" 2
#NO_APP
	testq	%rsi, %rsi
	jle	.L1321
	vbroadcastss	%xmm0, %zmm2
	vbroadcastss	%xmm1, %zmm1
	leaq	-1(%rsi), %r9
	cmpq	$2, %rsi
	jle	.L1323
	leaq	2432(%rdi), %rdx
.L1319:
	movq	%rdi, %rax
	.p2align 4,,10
	.p2align 3
.L1318:
	vmovaps	%zmm2, %zmm0
	vfmadd132ps	(%rax), %zmm1, %zmm0
	addq	$64, %rax
	vfmadd132ps	%zmm2, %zmm1, %zmm0
	vmovups	%zmm0, -64(%rax)
	cmpq	%rdx, %rax
	jne	.L1318
	leaq	1(%r8), %rcx
	addq	$2, %r8
	cmpq	%r8, %r9
	jg	.L1319
	.p2align 4,,10
	.p2align 3
.L1322:
	movq	%rdi, %rax
	.p2align 4,,10
	.p2align 3
.L1320:
	vmovaps	%zmm2, %zmm0
	vfmadd132ps	(%rax), %zmm1, %zmm0
	addq	$64, %rax
	vmovups	%zmm0, -64(%rax)
	cmpq	%rdx, %rax
	jne	.L1320
	incq	%rcx
	cmpq	%rcx, %rsi
	jg	.L1322
	vzeroupper
.L1321:
#APP
# 159 "axpb.cc" 1
	# axpb_simd_c<$38>: ax+c loop end
# 0 "" 2
#NO_APP
	xorl	%eax, %eax
	leave
	.cfi_remember_state
	.cfi_def_cfa 7, 8
	ret
.L1323:
	.cfi_restore_state
	xorl	%ecx, %ecx
	leaq	2432(%rdi), %rdx
	jmp	.L1322
.L1329:
	leaq	.LC119(%rip), %rcx
	movl	$149, %edx
	leaq	.LC1(%rip), %rsi
	leaq	.LC10(%rip), %rdi
	call	__assert_fail@PLT
.L1330:
	leaq	.LC119(%rip), %rcx
	movl	$150, %edx
	leaq	.LC1(%rip), %rsi
	leaq	.LC4(%rip), %rdi
	call	__assert_fail@PLT
	.cfi_endproc
.LFE5827:
	.size	_Z11axpb_simd_cILi38EEl14axpb_options_tfPff, .-_Z11axpb_simd_cILi38EEl14axpb_options_tfPff
	.section	.rodata._Z24axpb_simd_parallel_m_mnmILi39EEl14axpb_options_tfPff.str1.8,"aMS",@progbits,1
	.align 8
.LC120:
	.string	"long int axpb_simd_parallel_m_mnm(axpb_options_t, float, float*, float) [with int c = 39]"
	.section	.text._Z24axpb_simd_parallel_m_mnmILi39EEl14axpb_options_tfPff,"axG",@progbits,_Z24axpb_simd_parallel_m_mnmILi39EEl14axpb_options_tfPff,comdat
	.p2align 4
	.weak	_Z24axpb_simd_parallel_m_mnmILi39EEl14axpb_options_tfPff
	.type	_Z24axpb_simd_parallel_m_mnmILi39EEl14axpb_options_tfPff, @function
_Z24axpb_simd_parallel_m_mnmILi39EEl14axpb_options_tfPff:
.LFB5832:
	.cfi_startproc
	endbr64
	pushq	%rax
	.cfi_def_cfa_offset 16
	popq	%rax
	.cfi_def_cfa_offset 8
	leaq	.LC120(%rip), %rcx
	movl	$287, %edx
	leaq	.LC1(%rip), %rsi
	leaq	.LC6(%rip), %rdi
	subq	$8, %rsp
	.cfi_def_cfa_offset 16
	call	__assert_fail@PLT
	.cfi_endproc
.LFE5832:
	.size	_Z24axpb_simd_parallel_m_mnmILi39EEl14axpb_options_tfPff, .-_Z24axpb_simd_parallel_m_mnmILi39EEl14axpb_options_tfPff
	.section	.rodata._Z15axpb_simd_m_mnmILi39EEl14axpb_options_tfPff.str1.8,"aMS",@progbits,1
	.align 8
.LC121:
	.string	"long int axpb_simd_m_mnm(axpb_options_t, float, float*, float) [with int c = 39]"
	.section	.text._Z15axpb_simd_m_mnmILi39EEl14axpb_options_tfPff,"axG",@progbits,_Z15axpb_simd_m_mnmILi39EEl14axpb_options_tfPff,comdat
	.p2align 4
	.weak	_Z15axpb_simd_m_mnmILi39EEl14axpb_options_tfPff
	.type	_Z15axpb_simd_m_mnmILi39EEl14axpb_options_tfPff, @function
_Z15axpb_simd_m_mnmILi39EEl14axpb_options_tfPff:
.LFB5831:
	.cfi_startproc
	endbr64
	pushq	%rbp
	.cfi_def_cfa_offset 16
	.cfi_offset 6, -16
	movabsq	$7567895004598790407, %rdx
	movq	%rdi, %rsi
	movq	%rsp, %rbp
	.cfi_def_cfa_register 6
	movq	56(%rbp), %rcx
	movq	64(%rbp), %rdi
	movq	%rcx, %rax
	imulq	%rdx
	andq	$-64, %rsp
	movq	%rdx, %rax
	movq	%rcx, %rdx
	sarq	$8, %rax
	sarq	$63, %rdx
	subq	%rdx, %rax
	imulq	$624, %rax, %rax
	cmpq	%rax, %rcx
	jne	.L1353
	cmpq	$1, 32(%rbp)
	jne	.L1354
	testq	%rcx, %rcx
	leaq	15(%rcx), %r10
	cmovns	%rcx, %r10
	leaq	2496(%rsi), %rdx
	sarq	$4, %r10
	xorl	%r8d, %r8d
	vbroadcastss	%xmm0, %zmm2
	vbroadcastss	%xmm1, %zmm1
	leaq	-1(%rdi), %r11
	cmpq	$15, %rcx
	jle	.L1347
.L1339:
#APP
# 255 "axpb.cc" 1
	# axpb_simd_m_mnm<$39>: ax+c inner loop begin
# 0 "" 2
#NO_APP
	testq	%rdi, %rdi
	jle	.L1344
	cmpq	$2, %rdi
	jle	.L1346
	movl	$1, %r9d
.L1342:
	movq	%rsi, %rax
	.p2align 4,,10
	.p2align 3
.L1341:
	vmovaps	%zmm2, %zmm0
	vfmadd132ps	(%rax), %zmm1, %zmm0
	addq	$64, %rax
	vfmadd132ps	%zmm2, %zmm1, %zmm0
	vmovups	%zmm0, -64(%rax)
	cmpq	%rdx, %rax
	jne	.L1341
	leaq	1(%r9), %rcx
	addq	$2, %r9
	cmpq	%r9, %r11
	jg	.L1342
	.p2align 4,,10
	.p2align 3
.L1345:
	movq	%rsi, %rax
	.p2align 4,,10
	.p2align 3
.L1343:
	vmovaps	%zmm2, %zmm0
	vfmadd132ps	(%rax), %zmm1, %zmm0
	addq	$64, %rax
	vmovups	%zmm0, -64(%rax)
	cmpq	%rdx, %rax
	jne	.L1343
	incq	%rcx
	cmpq	%rcx, %rdi
	jg	.L1345
.L1344:
#APP
# 261 "axpb.cc" 1
	# axpb_simd_m_mnm<$39>: ax+c inner loop end
# 0 "" 2
#NO_APP
	addq	$39, %r8
	addq	$2496, %rsi
	addq	$2496, %rdx
	cmpq	%r8, %r10
	jg	.L1339
.L1347:
	xorl	%eax, %eax
	vzeroupper
	leave
	.cfi_remember_state
	.cfi_def_cfa 7, 8
	ret
.L1346:
	.cfi_restore_state
	xorl	%ecx, %ecx
	jmp	.L1345
.L1353:
	leaq	.LC121(%rip), %rcx
	movl	$251, %edx
	leaq	.LC1(%rip), %rsi
	leaq	.LC8(%rip), %rdi
	call	__assert_fail@PLT
.L1354:
	leaq	.LC121(%rip), %rcx
	movl	$252, %edx
	leaq	.LC1(%rip), %rsi
	leaq	.LC4(%rip), %rdi
	call	__assert_fail@PLT
	.cfi_endproc
.LFE5831:
	.size	_Z15axpb_simd_m_mnmILi39EEl14axpb_options_tfPff, .-_Z15axpb_simd_m_mnmILi39EEl14axpb_options_tfPff
	.section	.rodata._Z11axpb_simd_cILi39EEl14axpb_options_tfPff.str1.8,"aMS",@progbits,1
	.align 8
.LC122:
	.string	"long int axpb_simd_c(axpb_options_t, float, float*, float) [with int c = 39]"
	.section	.text._Z11axpb_simd_cILi39EEl14axpb_options_tfPff,"axG",@progbits,_Z11axpb_simd_cILi39EEl14axpb_options_tfPff,comdat
	.p2align 4
	.weak	_Z11axpb_simd_cILi39EEl14axpb_options_tfPff
	.type	_Z11axpb_simd_cILi39EEl14axpb_options_tfPff, @function
_Z11axpb_simd_cILi39EEl14axpb_options_tfPff:
.LFB5830:
	.cfi_startproc
	endbr64
	pushq	%rbp
	.cfi_def_cfa_offset 16
	.cfi_offset 6, -16
	movq	%rsp, %rbp
	.cfi_def_cfa_register 6
	andq	$-64, %rsp
	cmpq	$624, 56(%rbp)
	jne	.L1371
	movq	32(%rbp), %r8
	cmpq	$1, %r8
	jne	.L1372
	movq	64(%rbp), %rsi
#APP
# 153 "axpb.cc" 1
	# axpb_simd_c<$39>: ax+c loop begin
# 0 "" 2
#NO_APP
	testq	%rsi, %rsi
	jle	.L1363
	vbroadcastss	%xmm0, %zmm2
	vbroadcastss	%xmm1, %zmm1
	leaq	-1(%rsi), %r9
	cmpq	$2, %rsi
	jle	.L1365
	leaq	2496(%rdi), %rdx
.L1361:
	movq	%rdi, %rax
	.p2align 4,,10
	.p2align 3
.L1360:
	vmovaps	%zmm2, %zmm0
	vfmadd132ps	(%rax), %zmm1, %zmm0
	addq	$64, %rax
	vfmadd132ps	%zmm2, %zmm1, %zmm0
	vmovups	%zmm0, -64(%rax)
	cmpq	%rdx, %rax
	jne	.L1360
	leaq	1(%r8), %rcx
	addq	$2, %r8
	cmpq	%r8, %r9
	jg	.L1361
	.p2align 4,,10
	.p2align 3
.L1364:
	movq	%rdi, %rax
	.p2align 4,,10
	.p2align 3
.L1362:
	vmovaps	%zmm2, %zmm0
	vfmadd132ps	(%rax), %zmm1, %zmm0
	addq	$64, %rax
	vmovups	%zmm0, -64(%rax)
	cmpq	%rdx, %rax
	jne	.L1362
	incq	%rcx
	cmpq	%rcx, %rsi
	jg	.L1364
	vzeroupper
.L1363:
#APP
# 159 "axpb.cc" 1
	# axpb_simd_c<$39>: ax+c loop end
# 0 "" 2
#NO_APP
	xorl	%eax, %eax
	leave
	.cfi_remember_state
	.cfi_def_cfa 7, 8
	ret
.L1365:
	.cfi_restore_state
	xorl	%ecx, %ecx
	leaq	2496(%rdi), %rdx
	jmp	.L1364
.L1371:
	leaq	.LC122(%rip), %rcx
	movl	$149, %edx
	leaq	.LC1(%rip), %rsi
	leaq	.LC10(%rip), %rdi
	call	__assert_fail@PLT
.L1372:
	leaq	.LC122(%rip), %rcx
	movl	$150, %edx
	leaq	.LC1(%rip), %rsi
	leaq	.LC4(%rip), %rdi
	call	__assert_fail@PLT
	.cfi_endproc
.LFE5830:
	.size	_Z11axpb_simd_cILi39EEl14axpb_options_tfPff, .-_Z11axpb_simd_cILi39EEl14axpb_options_tfPff
	.section	.rodata._Z24axpb_simd_parallel_m_mnmILi40EEl14axpb_options_tfPff.str1.8,"aMS",@progbits,1
	.align 8
.LC123:
	.string	"long int axpb_simd_parallel_m_mnm(axpb_options_t, float, float*, float) [with int c = 40]"
	.section	.text._Z24axpb_simd_parallel_m_mnmILi40EEl14axpb_options_tfPff,"axG",@progbits,_Z24axpb_simd_parallel_m_mnmILi40EEl14axpb_options_tfPff,comdat
	.p2align 4
	.weak	_Z24axpb_simd_parallel_m_mnmILi40EEl14axpb_options_tfPff
	.type	_Z24axpb_simd_parallel_m_mnmILi40EEl14axpb_options_tfPff, @function
_Z24axpb_simd_parallel_m_mnmILi40EEl14axpb_options_tfPff:
.LFB5835:
	.cfi_startproc
	endbr64
	pushq	%rax
	.cfi_def_cfa_offset 16
	popq	%rax
	.cfi_def_cfa_offset 8
	leaq	.LC123(%rip), %rcx
	movl	$287, %edx
	leaq	.LC1(%rip), %rsi
	leaq	.LC6(%rip), %rdi
	subq	$8, %rsp
	.cfi_def_cfa_offset 16
	call	__assert_fail@PLT
	.cfi_endproc
.LFE5835:
	.size	_Z24axpb_simd_parallel_m_mnmILi40EEl14axpb_options_tfPff, .-_Z24axpb_simd_parallel_m_mnmILi40EEl14axpb_options_tfPff
	.section	.rodata._Z15axpb_simd_m_mnmILi40EEl14axpb_options_tfPff.str1.8,"aMS",@progbits,1
	.align 8
.LC124:
	.string	"long int axpb_simd_m_mnm(axpb_options_t, float, float*, float) [with int c = 40]"
	.section	.text._Z15axpb_simd_m_mnmILi40EEl14axpb_options_tfPff,"axG",@progbits,_Z15axpb_simd_m_mnmILi40EEl14axpb_options_tfPff,comdat
	.p2align 4
	.weak	_Z15axpb_simd_m_mnmILi40EEl14axpb_options_tfPff
	.type	_Z15axpb_simd_m_mnmILi40EEl14axpb_options_tfPff, @function
_Z15axpb_simd_m_mnmILi40EEl14axpb_options_tfPff:
.LFB5834:
	.cfi_startproc
	endbr64
	pushq	%rbp
	.cfi_def_cfa_offset 16
	.cfi_offset 6, -16
	movabsq	$7378697629483820647, %rdx
	movq	%rdi, %rsi
	movq	%rsp, %rbp
	.cfi_def_cfa_register 6
	movq	56(%rbp), %rcx
	movq	64(%rbp), %rdi
	movq	%rcx, %rax
	imulq	%rdx
	andq	$-64, %rsp
	movq	%rdx, %rax
	movq	%rcx, %rdx
	sarq	$8, %rax
	sarq	$63, %rdx
	subq	%rdx, %rax
	leaq	(%rax,%rax,4), %rax
	salq	$7, %rax
	cmpq	%rax, %rcx
	jne	.L1395
	cmpq	$1, 32(%rbp)
	jne	.L1396
	testq	%rcx, %rcx
	leaq	15(%rcx), %r10
	cmovns	%rcx, %r10
	leaq	2560(%rsi), %rdx
	sarq	$4, %r10
	xorl	%r8d, %r8d
	vbroadcastss	%xmm0, %zmm2
	vbroadcastss	%xmm1, %zmm1
	leaq	-1(%rdi), %r11
	cmpq	$15, %rcx
	jle	.L1389
.L1381:
#APP
# 255 "axpb.cc" 1
	# axpb_simd_m_mnm<$40>: ax+c inner loop begin
# 0 "" 2
#NO_APP
	testq	%rdi, %rdi
	jle	.L1386
	cmpq	$2, %rdi
	jle	.L1388
	movl	$1, %r9d
.L1384:
	movq	%rsi, %rax
	.p2align 4,,10
	.p2align 3
.L1383:
	vmovaps	%zmm2, %zmm0
	vfmadd132ps	(%rax), %zmm1, %zmm0
	addq	$64, %rax
	vfmadd132ps	%zmm2, %zmm1, %zmm0
	vmovups	%zmm0, -64(%rax)
	cmpq	%rdx, %rax
	jne	.L1383
	leaq	1(%r9), %rcx
	addq	$2, %r9
	cmpq	%r9, %r11
	jg	.L1384
	.p2align 4,,10
	.p2align 3
.L1387:
	movq	%rsi, %rax
	.p2align 4,,10
	.p2align 3
.L1385:
	vmovaps	%zmm2, %zmm0
	vfmadd132ps	(%rax), %zmm1, %zmm0
	addq	$64, %rax
	vmovups	%zmm0, -64(%rax)
	cmpq	%rdx, %rax
	jne	.L1385
	incq	%rcx
	cmpq	%rcx, %rdi
	jg	.L1387
.L1386:
#APP
# 261 "axpb.cc" 1
	# axpb_simd_m_mnm<$40>: ax+c inner loop end
# 0 "" 2
#NO_APP
	addq	$40, %r8
	addq	$2560, %rsi
	addq	$2560, %rdx
	cmpq	%r8, %r10
	jg	.L1381
.L1389:
	xorl	%eax, %eax
	vzeroupper
	leave
	.cfi_remember_state
	.cfi_def_cfa 7, 8
	ret
.L1388:
	.cfi_restore_state
	xorl	%ecx, %ecx
	jmp	.L1387
.L1395:
	leaq	.LC124(%rip), %rcx
	movl	$251, %edx
	leaq	.LC1(%rip), %rsi
	leaq	.LC8(%rip), %rdi
	call	__assert_fail@PLT
.L1396:
	leaq	.LC124(%rip), %rcx
	movl	$252, %edx
	leaq	.LC1(%rip), %rsi
	leaq	.LC4(%rip), %rdi
	call	__assert_fail@PLT
	.cfi_endproc
.LFE5834:
	.size	_Z15axpb_simd_m_mnmILi40EEl14axpb_options_tfPff, .-_Z15axpb_simd_m_mnmILi40EEl14axpb_options_tfPff
	.section	.rodata._Z11axpb_simd_cILi40EEl14axpb_options_tfPff.str1.8,"aMS",@progbits,1
	.align 8
.LC125:
	.string	"long int axpb_simd_c(axpb_options_t, float, float*, float) [with int c = 40]"
	.section	.text._Z11axpb_simd_cILi40EEl14axpb_options_tfPff,"axG",@progbits,_Z11axpb_simd_cILi40EEl14axpb_options_tfPff,comdat
	.p2align 4
	.weak	_Z11axpb_simd_cILi40EEl14axpb_options_tfPff
	.type	_Z11axpb_simd_cILi40EEl14axpb_options_tfPff, @function
_Z11axpb_simd_cILi40EEl14axpb_options_tfPff:
.LFB5833:
	.cfi_startproc
	endbr64
	pushq	%rbp
	.cfi_def_cfa_offset 16
	.cfi_offset 6, -16
	movq	%rsp, %rbp
	.cfi_def_cfa_register 6
	andq	$-64, %rsp
	cmpq	$640, 56(%rbp)
	jne	.L1413
	movq	32(%rbp), %r8
	cmpq	$1, %r8
	jne	.L1414
	movq	64(%rbp), %rsi
#APP
# 153 "axpb.cc" 1
	# axpb_simd_c<$40>: ax+c loop begin
# 0 "" 2
#NO_APP
	testq	%rsi, %rsi
	jle	.L1405
	vbroadcastss	%xmm0, %zmm2
	vbroadcastss	%xmm1, %zmm1
	leaq	-1(%rsi), %r9
	cmpq	$2, %rsi
	jle	.L1407
	leaq	2560(%rdi), %rdx
.L1403:
	movq	%rdi, %rax
	.p2align 4,,10
	.p2align 3
.L1402:
	vmovaps	%zmm2, %zmm0
	vfmadd132ps	(%rax), %zmm1, %zmm0
	addq	$64, %rax
	vfmadd132ps	%zmm2, %zmm1, %zmm0
	vmovups	%zmm0, -64(%rax)
	cmpq	%rdx, %rax
	jne	.L1402
	leaq	1(%r8), %rcx
	addq	$2, %r8
	cmpq	%r8, %r9
	jg	.L1403
	.p2align 4,,10
	.p2align 3
.L1406:
	movq	%rdi, %rax
	.p2align 4,,10
	.p2align 3
.L1404:
	vmovaps	%zmm2, %zmm0
	vfmadd132ps	(%rax), %zmm1, %zmm0
	addq	$64, %rax
	vmovups	%zmm0, -64(%rax)
	cmpq	%rdx, %rax
	jne	.L1404
	incq	%rcx
	cmpq	%rcx, %rsi
	jg	.L1406
	vzeroupper
.L1405:
#APP
# 159 "axpb.cc" 1
	# axpb_simd_c<$40>: ax+c loop end
# 0 "" 2
#NO_APP
	xorl	%eax, %eax
	leave
	.cfi_remember_state
	.cfi_def_cfa 7, 8
	ret
.L1407:
	.cfi_restore_state
	xorl	%ecx, %ecx
	leaq	2560(%rdi), %rdx
	jmp	.L1406
.L1413:
	leaq	.LC125(%rip), %rcx
	movl	$149, %edx
	leaq	.LC1(%rip), %rsi
	leaq	.LC10(%rip), %rdi
	call	__assert_fail@PLT
.L1414:
	leaq	.LC125(%rip), %rcx
	movl	$150, %edx
	leaq	.LC1(%rip), %rsi
	leaq	.LC4(%rip), %rdi
	call	__assert_fail@PLT
	.cfi_endproc
.LFE5833:
	.size	_Z11axpb_simd_cILi40EEl14axpb_options_tfPff, .-_Z11axpb_simd_cILi40EEl14axpb_options_tfPff
	.section	.rodata._Z24axpb_simd_parallel_m_mnmILi41EEl14axpb_options_tfPff.str1.8,"aMS",@progbits,1
	.align 8
.LC126:
	.string	"long int axpb_simd_parallel_m_mnm(axpb_options_t, float, float*, float) [with int c = 41]"
	.section	.text._Z24axpb_simd_parallel_m_mnmILi41EEl14axpb_options_tfPff,"axG",@progbits,_Z24axpb_simd_parallel_m_mnmILi41EEl14axpb_options_tfPff,comdat
	.p2align 4
	.weak	_Z24axpb_simd_parallel_m_mnmILi41EEl14axpb_options_tfPff
	.type	_Z24axpb_simd_parallel_m_mnmILi41EEl14axpb_options_tfPff, @function
_Z24axpb_simd_parallel_m_mnmILi41EEl14axpb_options_tfPff:
.LFB5838:
	.cfi_startproc
	endbr64
	pushq	%rax
	.cfi_def_cfa_offset 16
	popq	%rax
	.cfi_def_cfa_offset 8
	leaq	.LC126(%rip), %rcx
	movl	$287, %edx
	leaq	.LC1(%rip), %rsi
	leaq	.LC6(%rip), %rdi
	subq	$8, %rsp
	.cfi_def_cfa_offset 16
	call	__assert_fail@PLT
	.cfi_endproc
.LFE5838:
	.size	_Z24axpb_simd_parallel_m_mnmILi41EEl14axpb_options_tfPff, .-_Z24axpb_simd_parallel_m_mnmILi41EEl14axpb_options_tfPff
	.section	.rodata._Z15axpb_simd_m_mnmILi41EEl14axpb_options_tfPff.str1.8,"aMS",@progbits,1
	.align 8
.LC127:
	.string	"long int axpb_simd_m_mnm(axpb_options_t, float, float*, float) [with int c = 41]"
	.section	.text._Z15axpb_simd_m_mnmILi41EEl14axpb_options_tfPff,"axG",@progbits,_Z15axpb_simd_m_mnmILi41EEl14axpb_options_tfPff,comdat
	.p2align 4
	.weak	_Z15axpb_simd_m_mnmILi41EEl14axpb_options_tfPff
	.type	_Z15axpb_simd_m_mnmILi41EEl14axpb_options_tfPff, @function
_Z15axpb_simd_m_mnmILi41EEl14axpb_options_tfPff:
.LFB5837:
	.cfi_startproc
	endbr64
	pushq	%rbp
	.cfi_def_cfa_offset 16
	.cfi_offset 6, -16
	movabsq	$7198729394618361607, %rdx
	movq	%rdi, %rsi
	movq	%rsp, %rbp
	.cfi_def_cfa_register 6
	movq	56(%rbp), %rcx
	movq	64(%rbp), %rdi
	movq	%rcx, %rax
	imulq	%rdx
	andq	$-64, %rsp
	movq	%rdx, %rax
	movq	%rcx, %rdx
	sarq	$8, %rax
	sarq	$63, %rdx
	subq	%rdx, %rax
	imulq	$656, %rax, %rax
	cmpq	%rax, %rcx
	jne	.L1437
	cmpq	$1, 32(%rbp)
	jne	.L1438
	testq	%rcx, %rcx
	leaq	15(%rcx), %r10
	cmovns	%rcx, %r10
	leaq	2624(%rsi), %rdx
	sarq	$4, %r10
	xorl	%r9d, %r9d
	vbroadcastss	%xmm0, %zmm2
	vbroadcastss	%xmm1, %zmm1
	leaq	-1(%rdi), %r11
	cmpq	$15, %rcx
	jle	.L1431
.L1423:
#APP
# 255 "axpb.cc" 1
	# axpb_simd_m_mnm<$41>: ax+c inner loop begin
# 0 "" 2
#NO_APP
	testq	%rdi, %rdi
	jle	.L1428
	cmpq	$2, %rdi
	jle	.L1430
	movl	$1, %r8d
.L1426:
	movq	%rsi, %rax
	.p2align 4,,10
	.p2align 3
.L1425:
	vmovaps	%zmm2, %zmm0
	vfmadd132ps	(%rax), %zmm1, %zmm0
	addq	$64, %rax
	vfmadd132ps	%zmm2, %zmm1, %zmm0
	vmovups	%zmm0, -64(%rax)
	cmpq	%rdx, %rax
	jne	.L1425
	leaq	1(%r8), %rcx
	addq	$2, %r8
	cmpq	%r8, %r11
	jg	.L1426
	.p2align 4,,10
	.p2align 3
.L1429:
	movq	%rsi, %rax
	.p2align 4,,10
	.p2align 3
.L1427:
	vmovaps	%zmm2, %zmm0
	vfmadd132ps	(%rax), %zmm1, %zmm0
	addq	$64, %rax
	vmovups	%zmm0, -64(%rax)
	cmpq	%rdx, %rax
	jne	.L1427
	incq	%rcx
	cmpq	%rcx, %rdi
	jg	.L1429
.L1428:
#APP
# 261 "axpb.cc" 1
	# axpb_simd_m_mnm<$41>: ax+c inner loop end
# 0 "" 2
#NO_APP
	addq	$41, %r9
	addq	$2624, %rsi
	addq	$2624, %rdx
	cmpq	%r9, %r10
	jg	.L1423
.L1431:
	xorl	%eax, %eax
	vzeroupper
	leave
	.cfi_remember_state
	.cfi_def_cfa 7, 8
	ret
.L1430:
	.cfi_restore_state
	xorl	%ecx, %ecx
	jmp	.L1429
.L1437:
	leaq	.LC127(%rip), %rcx
	movl	$251, %edx
	leaq	.LC1(%rip), %rsi
	leaq	.LC8(%rip), %rdi
	call	__assert_fail@PLT
.L1438:
	leaq	.LC127(%rip), %rcx
	movl	$252, %edx
	leaq	.LC1(%rip), %rsi
	leaq	.LC4(%rip), %rdi
	call	__assert_fail@PLT
	.cfi_endproc
.LFE5837:
	.size	_Z15axpb_simd_m_mnmILi41EEl14axpb_options_tfPff, .-_Z15axpb_simd_m_mnmILi41EEl14axpb_options_tfPff
	.section	.rodata._Z11axpb_simd_cILi41EEl14axpb_options_tfPff.str1.8,"aMS",@progbits,1
	.align 8
.LC128:
	.string	"long int axpb_simd_c(axpb_options_t, float, float*, float) [with int c = 41]"
	.section	.text._Z11axpb_simd_cILi41EEl14axpb_options_tfPff,"axG",@progbits,_Z11axpb_simd_cILi41EEl14axpb_options_tfPff,comdat
	.p2align 4
	.weak	_Z11axpb_simd_cILi41EEl14axpb_options_tfPff
	.type	_Z11axpb_simd_cILi41EEl14axpb_options_tfPff, @function
_Z11axpb_simd_cILi41EEl14axpb_options_tfPff:
.LFB5836:
	.cfi_startproc
	endbr64
	pushq	%rbp
	.cfi_def_cfa_offset 16
	.cfi_offset 6, -16
	movq	%rsp, %rbp
	.cfi_def_cfa_register 6
	andq	$-64, %rsp
	cmpq	$656, 56(%rbp)
	jne	.L1455
	movq	32(%rbp), %r8
	cmpq	$1, %r8
	jne	.L1456
	movq	64(%rbp), %rsi
#APP
# 153 "axpb.cc" 1
	# axpb_simd_c<$41>: ax+c loop begin
# 0 "" 2
#NO_APP
	testq	%rsi, %rsi
	jle	.L1447
	vbroadcastss	%xmm0, %zmm2
	vbroadcastss	%xmm1, %zmm1
	leaq	-1(%rsi), %r9
	cmpq	$2, %rsi
	jle	.L1449
	leaq	2624(%rdi), %rdx
.L1445:
	movq	%rdi, %rax
	.p2align 4,,10
	.p2align 3
.L1444:
	vmovaps	%zmm2, %zmm0
	vfmadd132ps	(%rax), %zmm1, %zmm0
	addq	$64, %rax
	vfmadd132ps	%zmm2, %zmm1, %zmm0
	vmovups	%zmm0, -64(%rax)
	cmpq	%rdx, %rax
	jne	.L1444
	leaq	1(%r8), %rcx
	addq	$2, %r8
	cmpq	%r8, %r9
	jg	.L1445
	.p2align 4,,10
	.p2align 3
.L1448:
	movq	%rdi, %rax
	.p2align 4,,10
	.p2align 3
.L1446:
	vmovaps	%zmm2, %zmm0
	vfmadd132ps	(%rax), %zmm1, %zmm0
	addq	$64, %rax
	vmovups	%zmm0, -64(%rax)
	cmpq	%rdx, %rax
	jne	.L1446
	incq	%rcx
	cmpq	%rcx, %rsi
	jg	.L1448
	vzeroupper
.L1447:
#APP
# 159 "axpb.cc" 1
	# axpb_simd_c<$41>: ax+c loop end
# 0 "" 2
#NO_APP
	xorl	%eax, %eax
	leave
	.cfi_remember_state
	.cfi_def_cfa 7, 8
	ret
.L1449:
	.cfi_restore_state
	xorl	%ecx, %ecx
	leaq	2624(%rdi), %rdx
	jmp	.L1448
.L1455:
	leaq	.LC128(%rip), %rcx
	movl	$149, %edx
	leaq	.LC1(%rip), %rsi
	leaq	.LC10(%rip), %rdi
	call	__assert_fail@PLT
.L1456:
	leaq	.LC128(%rip), %rcx
	movl	$150, %edx
	leaq	.LC1(%rip), %rsi
	leaq	.LC4(%rip), %rdi
	call	__assert_fail@PLT
	.cfi_endproc
.LFE5836:
	.size	_Z11axpb_simd_cILi41EEl14axpb_options_tfPff, .-_Z11axpb_simd_cILi41EEl14axpb_options_tfPff
	.section	.rodata._Z24axpb_simd_parallel_m_mnmILi42EEl14axpb_options_tfPff.str1.8,"aMS",@progbits,1
	.align 8
.LC129:
	.string	"long int axpb_simd_parallel_m_mnm(axpb_options_t, float, float*, float) [with int c = 42]"
	.section	.text._Z24axpb_simd_parallel_m_mnmILi42EEl14axpb_options_tfPff,"axG",@progbits,_Z24axpb_simd_parallel_m_mnmILi42EEl14axpb_options_tfPff,comdat
	.p2align 4
	.weak	_Z24axpb_simd_parallel_m_mnmILi42EEl14axpb_options_tfPff
	.type	_Z24axpb_simd_parallel_m_mnmILi42EEl14axpb_options_tfPff, @function
_Z24axpb_simd_parallel_m_mnmILi42EEl14axpb_options_tfPff:
.LFB5841:
	.cfi_startproc
	endbr64
	pushq	%rax
	.cfi_def_cfa_offset 16
	popq	%rax
	.cfi_def_cfa_offset 8
	leaq	.LC129(%rip), %rcx
	movl	$287, %edx
	leaq	.LC1(%rip), %rsi
	leaq	.LC6(%rip), %rdi
	subq	$8, %rsp
	.cfi_def_cfa_offset 16
	call	__assert_fail@PLT
	.cfi_endproc
.LFE5841:
	.size	_Z24axpb_simd_parallel_m_mnmILi42EEl14axpb_options_tfPff, .-_Z24axpb_simd_parallel_m_mnmILi42EEl14axpb_options_tfPff
	.section	.rodata._Z15axpb_simd_m_mnmILi42EEl14axpb_options_tfPff.str1.8,"aMS",@progbits,1
	.align 8
.LC130:
	.string	"long int axpb_simd_m_mnm(axpb_options_t, float, float*, float) [with int c = 42]"
	.section	.text._Z15axpb_simd_m_mnmILi42EEl14axpb_options_tfPff,"axG",@progbits,_Z15axpb_simd_m_mnmILi42EEl14axpb_options_tfPff,comdat
	.p2align 4
	.weak	_Z15axpb_simd_m_mnmILi42EEl14axpb_options_tfPff
	.type	_Z15axpb_simd_m_mnmILi42EEl14axpb_options_tfPff, @function
_Z15axpb_simd_m_mnmILi42EEl14axpb_options_tfPff:
.LFB5840:
	.cfi_startproc
	endbr64
	pushq	%rbp
	.cfi_def_cfa_offset 16
	.cfi_offset 6, -16
	movabsq	$-4392081922311798003, %rdx
	movq	%rdi, %rsi
	movq	%rsp, %rbp
	.cfi_def_cfa_register 6
	movq	56(%rbp), %rcx
	movq	64(%rbp), %rdi
	movq	%rcx, %rax
	imulq	%rdx
	andq	$-64, %rsp
	leaq	(%rdx,%rcx), %rax
	movq	%rcx, %rdx
	sarq	$9, %rax
	sarq	$63, %rdx
	subq	%rdx, %rax
	imulq	$672, %rax, %rax
	cmpq	%rax, %rcx
	jne	.L1479
	cmpq	$1, 32(%rbp)
	jne	.L1480
	testq	%rcx, %rcx
	leaq	15(%rcx), %r10
	cmovns	%rcx, %r10
	leaq	2688(%rsi), %rdx
	sarq	$4, %r10
	xorl	%r9d, %r9d
	vbroadcastss	%xmm0, %zmm2
	vbroadcastss	%xmm1, %zmm1
	leaq	-1(%rdi), %r11
	cmpq	$15, %rcx
	jle	.L1473
.L1465:
#APP
# 255 "axpb.cc" 1
	# axpb_simd_m_mnm<$42>: ax+c inner loop begin
# 0 "" 2
#NO_APP
	testq	%rdi, %rdi
	jle	.L1470
	cmpq	$2, %rdi
	jle	.L1472
	movl	$1, %r8d
.L1468:
	movq	%rsi, %rax
	.p2align 4,,10
	.p2align 3
.L1467:
	vmovaps	%zmm2, %zmm0
	vfmadd132ps	(%rax), %zmm1, %zmm0
	addq	$64, %rax
	vfmadd132ps	%zmm2, %zmm1, %zmm0
	vmovups	%zmm0, -64(%rax)
	cmpq	%rdx, %rax
	jne	.L1467
	leaq	1(%r8), %rcx
	addq	$2, %r8
	cmpq	%r8, %r11
	jg	.L1468
	.p2align 4,,10
	.p2align 3
.L1471:
	movq	%rsi, %rax
	.p2align 4,,10
	.p2align 3
.L1469:
	vmovaps	%zmm2, %zmm0
	vfmadd132ps	(%rax), %zmm1, %zmm0
	addq	$64, %rax
	vmovups	%zmm0, -64(%rax)
	cmpq	%rdx, %rax
	jne	.L1469
	incq	%rcx
	cmpq	%rcx, %rdi
	jg	.L1471
.L1470:
#APP
# 261 "axpb.cc" 1
	# axpb_simd_m_mnm<$42>: ax+c inner loop end
# 0 "" 2
#NO_APP
	addq	$42, %r9
	addq	$2688, %rsi
	addq	$2688, %rdx
	cmpq	%r9, %r10
	jg	.L1465
.L1473:
	xorl	%eax, %eax
	vzeroupper
	leave
	.cfi_remember_state
	.cfi_def_cfa 7, 8
	ret
.L1472:
	.cfi_restore_state
	xorl	%ecx, %ecx
	jmp	.L1471
.L1479:
	leaq	.LC130(%rip), %rcx
	movl	$251, %edx
	leaq	.LC1(%rip), %rsi
	leaq	.LC8(%rip), %rdi
	call	__assert_fail@PLT
.L1480:
	leaq	.LC130(%rip), %rcx
	movl	$252, %edx
	leaq	.LC1(%rip), %rsi
	leaq	.LC4(%rip), %rdi
	call	__assert_fail@PLT
	.cfi_endproc
.LFE5840:
	.size	_Z15axpb_simd_m_mnmILi42EEl14axpb_options_tfPff, .-_Z15axpb_simd_m_mnmILi42EEl14axpb_options_tfPff
	.section	.rodata._Z11axpb_simd_cILi42EEl14axpb_options_tfPff.str1.8,"aMS",@progbits,1
	.align 8
.LC131:
	.string	"long int axpb_simd_c(axpb_options_t, float, float*, float) [with int c = 42]"
	.section	.text._Z11axpb_simd_cILi42EEl14axpb_options_tfPff,"axG",@progbits,_Z11axpb_simd_cILi42EEl14axpb_options_tfPff,comdat
	.p2align 4
	.weak	_Z11axpb_simd_cILi42EEl14axpb_options_tfPff
	.type	_Z11axpb_simd_cILi42EEl14axpb_options_tfPff, @function
_Z11axpb_simd_cILi42EEl14axpb_options_tfPff:
.LFB5839:
	.cfi_startproc
	endbr64
	pushq	%rbp
	.cfi_def_cfa_offset 16
	.cfi_offset 6, -16
	movq	%rsp, %rbp
	.cfi_def_cfa_register 6
	andq	$-64, %rsp
	cmpq	$672, 56(%rbp)
	jne	.L1497
	movq	32(%rbp), %r8
	cmpq	$1, %r8
	jne	.L1498
	movq	64(%rbp), %rsi
#APP
# 153 "axpb.cc" 1
	# axpb_simd_c<$42>: ax+c loop begin
# 0 "" 2
#NO_APP
	testq	%rsi, %rsi
	jle	.L1489
	vbroadcastss	%xmm0, %zmm2
	vbroadcastss	%xmm1, %zmm1
	leaq	-1(%rsi), %r9
	cmpq	$2, %rsi
	jle	.L1491
	leaq	2688(%rdi), %rdx
.L1487:
	movq	%rdi, %rax
	.p2align 4,,10
	.p2align 3
.L1486:
	vmovaps	%zmm2, %zmm0
	vfmadd132ps	(%rax), %zmm1, %zmm0
	addq	$64, %rax
	vfmadd132ps	%zmm2, %zmm1, %zmm0
	vmovups	%zmm0, -64(%rax)
	cmpq	%rdx, %rax
	jne	.L1486
	leaq	1(%r8), %rcx
	addq	$2, %r8
	cmpq	%r8, %r9
	jg	.L1487
	.p2align 4,,10
	.p2align 3
.L1490:
	movq	%rdi, %rax
	.p2align 4,,10
	.p2align 3
.L1488:
	vmovaps	%zmm2, %zmm0
	vfmadd132ps	(%rax), %zmm1, %zmm0
	addq	$64, %rax
	vmovups	%zmm0, -64(%rax)
	cmpq	%rdx, %rax
	jne	.L1488
	incq	%rcx
	cmpq	%rcx, %rsi
	jg	.L1490
	vzeroupper
.L1489:
#APP
# 159 "axpb.cc" 1
	# axpb_simd_c<$42>: ax+c loop end
# 0 "" 2
#NO_APP
	xorl	%eax, %eax
	leave
	.cfi_remember_state
	.cfi_def_cfa 7, 8
	ret
.L1491:
	.cfi_restore_state
	xorl	%ecx, %ecx
	leaq	2688(%rdi), %rdx
	jmp	.L1490
.L1497:
	leaq	.LC131(%rip), %rcx
	movl	$149, %edx
	leaq	.LC1(%rip), %rsi
	leaq	.LC10(%rip), %rdi
	call	__assert_fail@PLT
.L1498:
	leaq	.LC131(%rip), %rcx
	movl	$150, %edx
	leaq	.LC1(%rip), %rsi
	leaq	.LC4(%rip), %rdi
	call	__assert_fail@PLT
	.cfi_endproc
.LFE5839:
	.size	_Z11axpb_simd_cILi42EEl14axpb_options_tfPff, .-_Z11axpb_simd_cILi42EEl14axpb_options_tfPff
	.section	.rodata._Z24axpb_simd_parallel_m_mnmILi43EEl14axpb_options_tfPff.str1.8,"aMS",@progbits,1
	.align 8
.LC132:
	.string	"long int axpb_simd_parallel_m_mnm(axpb_options_t, float, float*, float) [with int c = 43]"
	.section	.text._Z24axpb_simd_parallel_m_mnmILi43EEl14axpb_options_tfPff,"axG",@progbits,_Z24axpb_simd_parallel_m_mnmILi43EEl14axpb_options_tfPff,comdat
	.p2align 4
	.weak	_Z24axpb_simd_parallel_m_mnmILi43EEl14axpb_options_tfPff
	.type	_Z24axpb_simd_parallel_m_mnmILi43EEl14axpb_options_tfPff, @function
_Z24axpb_simd_parallel_m_mnmILi43EEl14axpb_options_tfPff:
.LFB5844:
	.cfi_startproc
	endbr64
	pushq	%rax
	.cfi_def_cfa_offset 16
	popq	%rax
	.cfi_def_cfa_offset 8
	leaq	.LC132(%rip), %rcx
	movl	$287, %edx
	leaq	.LC1(%rip), %rsi
	leaq	.LC6(%rip), %rdi
	subq	$8, %rsp
	.cfi_def_cfa_offset 16
	call	__assert_fail@PLT
	.cfi_endproc
.LFE5844:
	.size	_Z24axpb_simd_parallel_m_mnmILi43EEl14axpb_options_tfPff, .-_Z24axpb_simd_parallel_m_mnmILi43EEl14axpb_options_tfPff
	.section	.rodata._Z15axpb_simd_m_mnmILi43EEl14axpb_options_tfPff.str1.8,"aMS",@progbits,1
	.align 8
.LC133:
	.string	"long int axpb_simd_m_mnm(axpb_options_t, float, float*, float) [with int c = 43]"
	.section	.text._Z15axpb_simd_m_mnmILi43EEl14axpb_options_tfPff,"axG",@progbits,_Z15axpb_simd_m_mnmILi43EEl14axpb_options_tfPff,comdat
	.p2align 4
	.weak	_Z15axpb_simd_m_mnmILi43EEl14axpb_options_tfPff
	.type	_Z15axpb_simd_m_mnmILi43EEl14axpb_options_tfPff, @function
_Z15axpb_simd_m_mnmILi43EEl14axpb_options_tfPff:
.LFB5843:
	.cfi_startproc
	endbr64
	pushq	%rbp
	.cfi_def_cfa_offset 16
